ARM GAS  /tmp/ccVTF5Db.s 			page 1


   1              		.cpu cortex-m0
   2              		.eabi_attribute 20, 1
   3              		.eabi_attribute 21, 1
   4              		.eabi_attribute 23, 3
   5              		.eabi_attribute 24, 1
   6              		.eabi_attribute 25, 1
   7              		.eabi_attribute 26, 1
   8              		.eabi_attribute 30, 1
   9              		.eabi_attribute 34, 0
  10              		.eabi_attribute 18, 4
  11              		.file	"stm32f0xx_hal_rcc.c"
  12              		.text
  13              	.Ltext0:
  14              		.cfi_sections	.debug_frame
  15              		.section	.text.HAL_RCC_DeInit,"ax",%progbits
  16              		.align	1
  17              		.global	HAL_RCC_DeInit
  18              		.syntax unified
  19              		.code	16
  20              		.thumb_func
  21              		.fpu softvfp
  23              	HAL_RCC_DeInit:
  24              	.LFB37:
  25              		.file 1 "Drivers/STM32F0xx_HAL_Driver/Src/stm32f0xx_hal_rcc.c"
   1:Drivers/STM32F0xx_HAL_Driver/Src/stm32f0xx_hal_rcc.c **** /**
   2:Drivers/STM32F0xx_HAL_Driver/Src/stm32f0xx_hal_rcc.c ****   ******************************************************************************
   3:Drivers/STM32F0xx_HAL_Driver/Src/stm32f0xx_hal_rcc.c ****   * @file    stm32f0xx_hal_rcc.c
   4:Drivers/STM32F0xx_HAL_Driver/Src/stm32f0xx_hal_rcc.c ****   * @author  MCD Application Team
   5:Drivers/STM32F0xx_HAL_Driver/Src/stm32f0xx_hal_rcc.c ****   * @brief   RCC HAL module driver.
   6:Drivers/STM32F0xx_HAL_Driver/Src/stm32f0xx_hal_rcc.c ****   *          This file provides firmware functions to manage the following 
   7:Drivers/STM32F0xx_HAL_Driver/Src/stm32f0xx_hal_rcc.c ****   *          functionalities of the Reset and Clock Control (RCC) peripheral:
   8:Drivers/STM32F0xx_HAL_Driver/Src/stm32f0xx_hal_rcc.c ****   *           + Initialization and de-initialization functions
   9:Drivers/STM32F0xx_HAL_Driver/Src/stm32f0xx_hal_rcc.c ****   *           + Peripheral Control functions
  10:Drivers/STM32F0xx_HAL_Driver/Src/stm32f0xx_hal_rcc.c ****   *       
  11:Drivers/STM32F0xx_HAL_Driver/Src/stm32f0xx_hal_rcc.c ****   @verbatim                
  12:Drivers/STM32F0xx_HAL_Driver/Src/stm32f0xx_hal_rcc.c ****   ==============================================================================
  13:Drivers/STM32F0xx_HAL_Driver/Src/stm32f0xx_hal_rcc.c ****                       ##### RCC specific features #####
  14:Drivers/STM32F0xx_HAL_Driver/Src/stm32f0xx_hal_rcc.c ****   ==============================================================================
  15:Drivers/STM32F0xx_HAL_Driver/Src/stm32f0xx_hal_rcc.c ****     [..]  
  16:Drivers/STM32F0xx_HAL_Driver/Src/stm32f0xx_hal_rcc.c ****       After reset the device is running from Internal High Speed oscillator
  17:Drivers/STM32F0xx_HAL_Driver/Src/stm32f0xx_hal_rcc.c ****       (HSI 8MHz) with Flash 0 wait state, Flash prefetch buffer is enabled, 
  18:Drivers/STM32F0xx_HAL_Driver/Src/stm32f0xx_hal_rcc.c ****       and all peripherals are off except internal SRAM, Flash and JTAG.
  19:Drivers/STM32F0xx_HAL_Driver/Src/stm32f0xx_hal_rcc.c ****       (+) There is no prescaler on High speed (AHB) and Low speed (APB) buses;
  20:Drivers/STM32F0xx_HAL_Driver/Src/stm32f0xx_hal_rcc.c ****           all peripherals mapped on these buses are running at HSI speed.
  21:Drivers/STM32F0xx_HAL_Driver/Src/stm32f0xx_hal_rcc.c ****       (+) The clock for all peripherals is switched off, except the SRAM and FLASH.
  22:Drivers/STM32F0xx_HAL_Driver/Src/stm32f0xx_hal_rcc.c ****       (+) All GPIOs are in input floating state, except the JTAG pins which
  23:Drivers/STM32F0xx_HAL_Driver/Src/stm32f0xx_hal_rcc.c ****           are assigned to be used for debug purpose.
  24:Drivers/STM32F0xx_HAL_Driver/Src/stm32f0xx_hal_rcc.c ****     [..] Once the device started from reset, the user application has to:
  25:Drivers/STM32F0xx_HAL_Driver/Src/stm32f0xx_hal_rcc.c ****       (+) Configure the clock source to be used to drive the System clock
  26:Drivers/STM32F0xx_HAL_Driver/Src/stm32f0xx_hal_rcc.c ****           (if the application needs higher frequency/performance)
  27:Drivers/STM32F0xx_HAL_Driver/Src/stm32f0xx_hal_rcc.c ****       (+) Configure the System clock frequency and Flash settings  
  28:Drivers/STM32F0xx_HAL_Driver/Src/stm32f0xx_hal_rcc.c ****       (+) Configure the AHB and APB buses prescalers
  29:Drivers/STM32F0xx_HAL_Driver/Src/stm32f0xx_hal_rcc.c ****       (+) Enable the clock for the peripheral(s) to be used
  30:Drivers/STM32F0xx_HAL_Driver/Src/stm32f0xx_hal_rcc.c ****       (+) Configure the clock source(s) for peripherals whose clocks are not
  31:Drivers/STM32F0xx_HAL_Driver/Src/stm32f0xx_hal_rcc.c ****           derived from the System clock (RTC, ADC, I2C, USART, TIM, USB FS, etc..)
  32:Drivers/STM32F0xx_HAL_Driver/Src/stm32f0xx_hal_rcc.c **** 
  33:Drivers/STM32F0xx_HAL_Driver/Src/stm32f0xx_hal_rcc.c ****                       ##### RCC Limitations #####
ARM GAS  /tmp/ccVTF5Db.s 			page 2


  34:Drivers/STM32F0xx_HAL_Driver/Src/stm32f0xx_hal_rcc.c ****   ==============================================================================
  35:Drivers/STM32F0xx_HAL_Driver/Src/stm32f0xx_hal_rcc.c ****     [..]  
  36:Drivers/STM32F0xx_HAL_Driver/Src/stm32f0xx_hal_rcc.c ****       A delay between an RCC peripheral clock enable and the effective peripheral 
  37:Drivers/STM32F0xx_HAL_Driver/Src/stm32f0xx_hal_rcc.c ****       enabling should be taken into account in order to manage the peripheral read/write 
  38:Drivers/STM32F0xx_HAL_Driver/Src/stm32f0xx_hal_rcc.c ****       from/to registers.
  39:Drivers/STM32F0xx_HAL_Driver/Src/stm32f0xx_hal_rcc.c ****       (+) This delay depends on the peripheral mapping.
  40:Drivers/STM32F0xx_HAL_Driver/Src/stm32f0xx_hal_rcc.c ****         (++) AHB & APB peripherals, 1 dummy read is necessary
  41:Drivers/STM32F0xx_HAL_Driver/Src/stm32f0xx_hal_rcc.c **** 
  42:Drivers/STM32F0xx_HAL_Driver/Src/stm32f0xx_hal_rcc.c ****     [..]  
  43:Drivers/STM32F0xx_HAL_Driver/Src/stm32f0xx_hal_rcc.c ****       Workarounds:
  44:Drivers/STM32F0xx_HAL_Driver/Src/stm32f0xx_hal_rcc.c ****       (#) For AHB & APB peripherals, a dummy read to the peripheral register has been
  45:Drivers/STM32F0xx_HAL_Driver/Src/stm32f0xx_hal_rcc.c ****           inserted in each __HAL_RCC_PPP_CLK_ENABLE() macro.
  46:Drivers/STM32F0xx_HAL_Driver/Src/stm32f0xx_hal_rcc.c **** 
  47:Drivers/STM32F0xx_HAL_Driver/Src/stm32f0xx_hal_rcc.c ****   @endverbatim
  48:Drivers/STM32F0xx_HAL_Driver/Src/stm32f0xx_hal_rcc.c ****   ******************************************************************************
  49:Drivers/STM32F0xx_HAL_Driver/Src/stm32f0xx_hal_rcc.c ****   * @attention
  50:Drivers/STM32F0xx_HAL_Driver/Src/stm32f0xx_hal_rcc.c ****   *
  51:Drivers/STM32F0xx_HAL_Driver/Src/stm32f0xx_hal_rcc.c ****   * <h2><center>&copy; COPYRIGHT(c) 2016 STMicroelectronics</center></h2>
  52:Drivers/STM32F0xx_HAL_Driver/Src/stm32f0xx_hal_rcc.c ****   *
  53:Drivers/STM32F0xx_HAL_Driver/Src/stm32f0xx_hal_rcc.c ****   * Redistribution and use in source and binary forms, with or without modification,
  54:Drivers/STM32F0xx_HAL_Driver/Src/stm32f0xx_hal_rcc.c ****   * are permitted provided that the following conditions are met:
  55:Drivers/STM32F0xx_HAL_Driver/Src/stm32f0xx_hal_rcc.c ****   *   1. Redistributions of source code must retain the above copyright notice,
  56:Drivers/STM32F0xx_HAL_Driver/Src/stm32f0xx_hal_rcc.c ****   *      this list of conditions and the following disclaimer.
  57:Drivers/STM32F0xx_HAL_Driver/Src/stm32f0xx_hal_rcc.c ****   *   2. Redistributions in binary form must reproduce the above copyright notice,
  58:Drivers/STM32F0xx_HAL_Driver/Src/stm32f0xx_hal_rcc.c ****   *      this list of conditions and the following disclaimer in the documentation
  59:Drivers/STM32F0xx_HAL_Driver/Src/stm32f0xx_hal_rcc.c ****   *      and/or other materials provided with the distribution.
  60:Drivers/STM32F0xx_HAL_Driver/Src/stm32f0xx_hal_rcc.c ****   *   3. Neither the name of STMicroelectronics nor the names of its contributors
  61:Drivers/STM32F0xx_HAL_Driver/Src/stm32f0xx_hal_rcc.c ****   *      may be used to endorse or promote products derived from this software
  62:Drivers/STM32F0xx_HAL_Driver/Src/stm32f0xx_hal_rcc.c ****   *      without specific prior written permission.
  63:Drivers/STM32F0xx_HAL_Driver/Src/stm32f0xx_hal_rcc.c ****   *
  64:Drivers/STM32F0xx_HAL_Driver/Src/stm32f0xx_hal_rcc.c ****   * THIS SOFTWARE IS PROVIDED BY THE COPYRIGHT HOLDERS AND CONTRIBUTORS "AS IS"
  65:Drivers/STM32F0xx_HAL_Driver/Src/stm32f0xx_hal_rcc.c ****   * AND ANY EXPRESS OR IMPLIED WARRANTIES, INCLUDING, BUT NOT LIMITED TO, THE
  66:Drivers/STM32F0xx_HAL_Driver/Src/stm32f0xx_hal_rcc.c ****   * IMPLIED WARRANTIES OF MERCHANTABILITY AND FITNESS FOR A PARTICULAR PURPOSE ARE
  67:Drivers/STM32F0xx_HAL_Driver/Src/stm32f0xx_hal_rcc.c ****   * DISCLAIMED. IN NO EVENT SHALL THE COPYRIGHT HOLDER OR CONTRIBUTORS BE LIABLE
  68:Drivers/STM32F0xx_HAL_Driver/Src/stm32f0xx_hal_rcc.c ****   * FOR ANY DIRECT, INDIRECT, INCIDENTAL, SPECIAL, EXEMPLARY, OR CONSEQUENTIAL
  69:Drivers/STM32F0xx_HAL_Driver/Src/stm32f0xx_hal_rcc.c ****   * DAMAGES (INCLUDING, BUT NOT LIMITED TO, PROCUREMENT OF SUBSTITUTE GOODS OR
  70:Drivers/STM32F0xx_HAL_Driver/Src/stm32f0xx_hal_rcc.c ****   * SERVICES; LOSS OF USE, DATA, OR PROFITS; OR BUSINESS INTERRUPTION) HOWEVER
  71:Drivers/STM32F0xx_HAL_Driver/Src/stm32f0xx_hal_rcc.c ****   * CAUSED AND ON ANY THEORY OF LIABILITY, WHETHER IN CONTRACT, STRICT LIABILITY,
  72:Drivers/STM32F0xx_HAL_Driver/Src/stm32f0xx_hal_rcc.c ****   * OR TORT (INCLUDING NEGLIGENCE OR OTHERWISE) ARISING IN ANY WAY OUT OF THE USE
  73:Drivers/STM32F0xx_HAL_Driver/Src/stm32f0xx_hal_rcc.c ****   * OF THIS SOFTWARE, EVEN IF ADVISED OF THE POSSIBILITY OF SUCH DAMAGE.
  74:Drivers/STM32F0xx_HAL_Driver/Src/stm32f0xx_hal_rcc.c ****   *
  75:Drivers/STM32F0xx_HAL_Driver/Src/stm32f0xx_hal_rcc.c ****   ******************************************************************************  
  76:Drivers/STM32F0xx_HAL_Driver/Src/stm32f0xx_hal_rcc.c **** */
  77:Drivers/STM32F0xx_HAL_Driver/Src/stm32f0xx_hal_rcc.c **** 
  78:Drivers/STM32F0xx_HAL_Driver/Src/stm32f0xx_hal_rcc.c **** /* Includes ------------------------------------------------------------------*/
  79:Drivers/STM32F0xx_HAL_Driver/Src/stm32f0xx_hal_rcc.c **** #include "stm32f0xx_hal.h"
  80:Drivers/STM32F0xx_HAL_Driver/Src/stm32f0xx_hal_rcc.c **** 
  81:Drivers/STM32F0xx_HAL_Driver/Src/stm32f0xx_hal_rcc.c **** /** @addtogroup STM32F0xx_HAL_Driver
  82:Drivers/STM32F0xx_HAL_Driver/Src/stm32f0xx_hal_rcc.c ****   * @{
  83:Drivers/STM32F0xx_HAL_Driver/Src/stm32f0xx_hal_rcc.c ****   */
  84:Drivers/STM32F0xx_HAL_Driver/Src/stm32f0xx_hal_rcc.c **** 
  85:Drivers/STM32F0xx_HAL_Driver/Src/stm32f0xx_hal_rcc.c **** /** @defgroup RCC RCC
  86:Drivers/STM32F0xx_HAL_Driver/Src/stm32f0xx_hal_rcc.c **** * @brief RCC HAL module driver
  87:Drivers/STM32F0xx_HAL_Driver/Src/stm32f0xx_hal_rcc.c ****   * @{
  88:Drivers/STM32F0xx_HAL_Driver/Src/stm32f0xx_hal_rcc.c ****   */
  89:Drivers/STM32F0xx_HAL_Driver/Src/stm32f0xx_hal_rcc.c **** 
  90:Drivers/STM32F0xx_HAL_Driver/Src/stm32f0xx_hal_rcc.c **** #ifdef HAL_RCC_MODULE_ENABLED
ARM GAS  /tmp/ccVTF5Db.s 			page 3


  91:Drivers/STM32F0xx_HAL_Driver/Src/stm32f0xx_hal_rcc.c **** 
  92:Drivers/STM32F0xx_HAL_Driver/Src/stm32f0xx_hal_rcc.c **** /* Private typedef -----------------------------------------------------------*/
  93:Drivers/STM32F0xx_HAL_Driver/Src/stm32f0xx_hal_rcc.c **** /* Private define ------------------------------------------------------------*/
  94:Drivers/STM32F0xx_HAL_Driver/Src/stm32f0xx_hal_rcc.c **** /** @defgroup RCC_Private_Constants RCC Private Constants
  95:Drivers/STM32F0xx_HAL_Driver/Src/stm32f0xx_hal_rcc.c ****  * @{
  96:Drivers/STM32F0xx_HAL_Driver/Src/stm32f0xx_hal_rcc.c ****  */
  97:Drivers/STM32F0xx_HAL_Driver/Src/stm32f0xx_hal_rcc.c **** /**
  98:Drivers/STM32F0xx_HAL_Driver/Src/stm32f0xx_hal_rcc.c ****   * @}
  99:Drivers/STM32F0xx_HAL_Driver/Src/stm32f0xx_hal_rcc.c ****   */
 100:Drivers/STM32F0xx_HAL_Driver/Src/stm32f0xx_hal_rcc.c **** /* Private macro -------------------------------------------------------------*/
 101:Drivers/STM32F0xx_HAL_Driver/Src/stm32f0xx_hal_rcc.c **** /** @defgroup RCC_Private_Macros RCC Private Macros
 102:Drivers/STM32F0xx_HAL_Driver/Src/stm32f0xx_hal_rcc.c ****   * @{
 103:Drivers/STM32F0xx_HAL_Driver/Src/stm32f0xx_hal_rcc.c ****   */
 104:Drivers/STM32F0xx_HAL_Driver/Src/stm32f0xx_hal_rcc.c **** 
 105:Drivers/STM32F0xx_HAL_Driver/Src/stm32f0xx_hal_rcc.c **** #define MCO1_CLK_ENABLE()     __HAL_RCC_GPIOA_CLK_ENABLE()
 106:Drivers/STM32F0xx_HAL_Driver/Src/stm32f0xx_hal_rcc.c **** #define MCO1_GPIO_PORT        GPIOA
 107:Drivers/STM32F0xx_HAL_Driver/Src/stm32f0xx_hal_rcc.c **** #define MCO1_PIN              GPIO_PIN_8
 108:Drivers/STM32F0xx_HAL_Driver/Src/stm32f0xx_hal_rcc.c **** 
 109:Drivers/STM32F0xx_HAL_Driver/Src/stm32f0xx_hal_rcc.c **** /**
 110:Drivers/STM32F0xx_HAL_Driver/Src/stm32f0xx_hal_rcc.c ****   * @}
 111:Drivers/STM32F0xx_HAL_Driver/Src/stm32f0xx_hal_rcc.c ****   */
 112:Drivers/STM32F0xx_HAL_Driver/Src/stm32f0xx_hal_rcc.c **** 
 113:Drivers/STM32F0xx_HAL_Driver/Src/stm32f0xx_hal_rcc.c **** /* Private variables ---------------------------------------------------------*/
 114:Drivers/STM32F0xx_HAL_Driver/Src/stm32f0xx_hal_rcc.c **** /** @defgroup RCC_Private_Variables RCC Private Variables
 115:Drivers/STM32F0xx_HAL_Driver/Src/stm32f0xx_hal_rcc.c ****   * @{
 116:Drivers/STM32F0xx_HAL_Driver/Src/stm32f0xx_hal_rcc.c ****   */
 117:Drivers/STM32F0xx_HAL_Driver/Src/stm32f0xx_hal_rcc.c **** /**
 118:Drivers/STM32F0xx_HAL_Driver/Src/stm32f0xx_hal_rcc.c ****   * @}
 119:Drivers/STM32F0xx_HAL_Driver/Src/stm32f0xx_hal_rcc.c ****   */
 120:Drivers/STM32F0xx_HAL_Driver/Src/stm32f0xx_hal_rcc.c **** 
 121:Drivers/STM32F0xx_HAL_Driver/Src/stm32f0xx_hal_rcc.c **** /* Private function prototypes -----------------------------------------------*/
 122:Drivers/STM32F0xx_HAL_Driver/Src/stm32f0xx_hal_rcc.c **** /* Exported functions ---------------------------------------------------------*/
 123:Drivers/STM32F0xx_HAL_Driver/Src/stm32f0xx_hal_rcc.c **** 
 124:Drivers/STM32F0xx_HAL_Driver/Src/stm32f0xx_hal_rcc.c **** /** @defgroup RCC_Exported_Functions RCC Exported Functions
 125:Drivers/STM32F0xx_HAL_Driver/Src/stm32f0xx_hal_rcc.c ****   * @{
 126:Drivers/STM32F0xx_HAL_Driver/Src/stm32f0xx_hal_rcc.c ****   */
 127:Drivers/STM32F0xx_HAL_Driver/Src/stm32f0xx_hal_rcc.c **** 
 128:Drivers/STM32F0xx_HAL_Driver/Src/stm32f0xx_hal_rcc.c **** /** @defgroup RCC_Exported_Functions_Group1 Initialization and de-initialization functions 
 129:Drivers/STM32F0xx_HAL_Driver/Src/stm32f0xx_hal_rcc.c ****   *  @brief    Initialization and Configuration functions 
 130:Drivers/STM32F0xx_HAL_Driver/Src/stm32f0xx_hal_rcc.c ****   *
 131:Drivers/STM32F0xx_HAL_Driver/Src/stm32f0xx_hal_rcc.c ****   @verbatim    
 132:Drivers/STM32F0xx_HAL_Driver/Src/stm32f0xx_hal_rcc.c ****   ===============================================================================
 133:Drivers/STM32F0xx_HAL_Driver/Src/stm32f0xx_hal_rcc.c ****            ##### Initialization and de-initialization functions #####
 134:Drivers/STM32F0xx_HAL_Driver/Src/stm32f0xx_hal_rcc.c ****   ===============================================================================
 135:Drivers/STM32F0xx_HAL_Driver/Src/stm32f0xx_hal_rcc.c ****     [..]
 136:Drivers/STM32F0xx_HAL_Driver/Src/stm32f0xx_hal_rcc.c ****       This section provides functions allowing to configure the internal/external oscillators
 137:Drivers/STM32F0xx_HAL_Driver/Src/stm32f0xx_hal_rcc.c ****       (HSE, HSI, HSI14, HSI48, LSE, LSI, PLL, CSS and MCO) and the System buses clocks (SYSCLK, 
 138:Drivers/STM32F0xx_HAL_Driver/Src/stm32f0xx_hal_rcc.c ****       AHB and APB1).
 139:Drivers/STM32F0xx_HAL_Driver/Src/stm32f0xx_hal_rcc.c **** 
 140:Drivers/STM32F0xx_HAL_Driver/Src/stm32f0xx_hal_rcc.c ****     [..] Internal/external clock and PLL configuration
 141:Drivers/STM32F0xx_HAL_Driver/Src/stm32f0xx_hal_rcc.c ****       (#) HSI (high-speed internal), 8 MHz factory-trimmed RC used directly or through
 142:Drivers/STM32F0xx_HAL_Driver/Src/stm32f0xx_hal_rcc.c ****           the PLL as System clock source.
 143:Drivers/STM32F0xx_HAL_Driver/Src/stm32f0xx_hal_rcc.c ****           The HSI clock can be used also to clock the USART and I2C peripherals.
 144:Drivers/STM32F0xx_HAL_Driver/Src/stm32f0xx_hal_rcc.c **** 
 145:Drivers/STM32F0xx_HAL_Driver/Src/stm32f0xx_hal_rcc.c ****       (#) HSI14 (high-speed internal), 14 MHz factory-trimmed RC used directly to clock 
 146:Drivers/STM32F0xx_HAL_Driver/Src/stm32f0xx_hal_rcc.c ****           the ADC peripheral.
 147:Drivers/STM32F0xx_HAL_Driver/Src/stm32f0xx_hal_rcc.c **** 
ARM GAS  /tmp/ccVTF5Db.s 			page 4


 148:Drivers/STM32F0xx_HAL_Driver/Src/stm32f0xx_hal_rcc.c ****       (#) LSI (low-speed internal), ~40 KHz low consumption RC used as IWDG and/or RTC
 149:Drivers/STM32F0xx_HAL_Driver/Src/stm32f0xx_hal_rcc.c ****           clock source.
 150:Drivers/STM32F0xx_HAL_Driver/Src/stm32f0xx_hal_rcc.c **** 
 151:Drivers/STM32F0xx_HAL_Driver/Src/stm32f0xx_hal_rcc.c ****       (#) HSE (high-speed external), 4 to 32 MHz crystal oscillator used directly or
 152:Drivers/STM32F0xx_HAL_Driver/Src/stm32f0xx_hal_rcc.c ****           through the PLL as System clock source. Can be used also as RTC clock source.
 153:Drivers/STM32F0xx_HAL_Driver/Src/stm32f0xx_hal_rcc.c **** 
 154:Drivers/STM32F0xx_HAL_Driver/Src/stm32f0xx_hal_rcc.c ****       (#) LSE (low-speed external), 32 KHz oscillator used as RTC clock source.   
 155:Drivers/STM32F0xx_HAL_Driver/Src/stm32f0xx_hal_rcc.c **** 
 156:Drivers/STM32F0xx_HAL_Driver/Src/stm32f0xx_hal_rcc.c ****       (#) PLL (clocked by HSI, HSI48 or HSE), featuring different output clocks:
 157:Drivers/STM32F0xx_HAL_Driver/Src/stm32f0xx_hal_rcc.c ****        (++) The first output is used to generate the high speed system clock (up to 48 MHz)
 158:Drivers/STM32F0xx_HAL_Driver/Src/stm32f0xx_hal_rcc.c ****        (++) The second output is used to generate the clock for the USB FS (48 MHz)
 159:Drivers/STM32F0xx_HAL_Driver/Src/stm32f0xx_hal_rcc.c ****        (++) The third output may be used to generate the clock for the TIM, I2C and USART 
 160:Drivers/STM32F0xx_HAL_Driver/Src/stm32f0xx_hal_rcc.c ****             peripherals (up to 48 MHz)
 161:Drivers/STM32F0xx_HAL_Driver/Src/stm32f0xx_hal_rcc.c **** 
 162:Drivers/STM32F0xx_HAL_Driver/Src/stm32f0xx_hal_rcc.c ****       (#) CSS (Clock security system), once enable using the macro __HAL_RCC_CSS_ENABLE()
 163:Drivers/STM32F0xx_HAL_Driver/Src/stm32f0xx_hal_rcc.c ****           and if a HSE clock failure occurs(HSE used directly or through PLL as System 
 164:Drivers/STM32F0xx_HAL_Driver/Src/stm32f0xx_hal_rcc.c ****           clock source), the System clocks automatically switched to HSI and an interrupt
 165:Drivers/STM32F0xx_HAL_Driver/Src/stm32f0xx_hal_rcc.c ****           is generated if enabled. The interrupt is linked to the Cortex-M0 NMI 
 166:Drivers/STM32F0xx_HAL_Driver/Src/stm32f0xx_hal_rcc.c ****           (Non-Maskable Interrupt) exception vector.   
 167:Drivers/STM32F0xx_HAL_Driver/Src/stm32f0xx_hal_rcc.c **** 
 168:Drivers/STM32F0xx_HAL_Driver/Src/stm32f0xx_hal_rcc.c ****       (#) MCO (microcontroller clock output), used to output SYSCLK, HSI, HSE, LSI, LSE or PLL
 169:Drivers/STM32F0xx_HAL_Driver/Src/stm32f0xx_hal_rcc.c ****           clock (divided by 2) output on pin (such as PA8 pin).
 170:Drivers/STM32F0xx_HAL_Driver/Src/stm32f0xx_hal_rcc.c **** 
 171:Drivers/STM32F0xx_HAL_Driver/Src/stm32f0xx_hal_rcc.c ****     [..] System, AHB and APB buses clocks configuration
 172:Drivers/STM32F0xx_HAL_Driver/Src/stm32f0xx_hal_rcc.c ****       (#) Several clock sources can be used to drive the System clock (SYSCLK): HSI,
 173:Drivers/STM32F0xx_HAL_Driver/Src/stm32f0xx_hal_rcc.c ****           HSE and PLL.
 174:Drivers/STM32F0xx_HAL_Driver/Src/stm32f0xx_hal_rcc.c ****           The AHB clock (HCLK) is derived from System clock through configurable
 175:Drivers/STM32F0xx_HAL_Driver/Src/stm32f0xx_hal_rcc.c ****           prescaler and used to clock the CPU, memory and peripherals mapped
 176:Drivers/STM32F0xx_HAL_Driver/Src/stm32f0xx_hal_rcc.c ****           on AHB bus (DMA, GPIO...). APB1 (PCLK1) clock is derived
 177:Drivers/STM32F0xx_HAL_Driver/Src/stm32f0xx_hal_rcc.c ****           from AHB clock through configurable prescalers and used to clock
 178:Drivers/STM32F0xx_HAL_Driver/Src/stm32f0xx_hal_rcc.c ****           the peripherals mapped on these buses. You can use
 179:Drivers/STM32F0xx_HAL_Driver/Src/stm32f0xx_hal_rcc.c ****           "@ref HAL_RCC_GetSysClockFreq()" function to retrieve the frequencies of these clocks.
 180:Drivers/STM32F0xx_HAL_Driver/Src/stm32f0xx_hal_rcc.c **** 
 181:Drivers/STM32F0xx_HAL_Driver/Src/stm32f0xx_hal_rcc.c ****       (#) All the peripheral clocks are derived from the System clock (SYSCLK) except:
 182:Drivers/STM32F0xx_HAL_Driver/Src/stm32f0xx_hal_rcc.c ****         (++) The FLASH program/erase clock  which is always HSI 8MHz clock.
 183:Drivers/STM32F0xx_HAL_Driver/Src/stm32f0xx_hal_rcc.c ****         (++) The USB 48 MHz clock which is derived from the PLL VCO clock.
 184:Drivers/STM32F0xx_HAL_Driver/Src/stm32f0xx_hal_rcc.c ****         (++) The USART clock which can be derived as well from HSI 8MHz, LSI or LSE.
 185:Drivers/STM32F0xx_HAL_Driver/Src/stm32f0xx_hal_rcc.c ****         (++) The I2C clock which can be derived as well from HSI 8MHz clock.
 186:Drivers/STM32F0xx_HAL_Driver/Src/stm32f0xx_hal_rcc.c ****         (++) The ADC clock which is derived from PLL output.
 187:Drivers/STM32F0xx_HAL_Driver/Src/stm32f0xx_hal_rcc.c ****         (++) The RTC clock which is derived from the LSE, LSI or 1 MHz HSE_RTC
 188:Drivers/STM32F0xx_HAL_Driver/Src/stm32f0xx_hal_rcc.c ****              (HSE divided by a programmable prescaler). The System clock (SYSCLK)
 189:Drivers/STM32F0xx_HAL_Driver/Src/stm32f0xx_hal_rcc.c ****              frequency must be higher or equal to the RTC clock frequency.
 190:Drivers/STM32F0xx_HAL_Driver/Src/stm32f0xx_hal_rcc.c ****         (++) IWDG clock which is always the LSI clock.
 191:Drivers/STM32F0xx_HAL_Driver/Src/stm32f0xx_hal_rcc.c **** 
 192:Drivers/STM32F0xx_HAL_Driver/Src/stm32f0xx_hal_rcc.c ****       (#) For the STM32F0xx devices, the maximum frequency of the SYSCLK, HCLK and PCLK1 is 48 MHz,
 193:Drivers/STM32F0xx_HAL_Driver/Src/stm32f0xx_hal_rcc.c ****           Depending on the SYSCLK frequency, the flash latency should be adapted accordingly.
 194:Drivers/STM32F0xx_HAL_Driver/Src/stm32f0xx_hal_rcc.c **** 
 195:Drivers/STM32F0xx_HAL_Driver/Src/stm32f0xx_hal_rcc.c ****       (#) After reset, the System clock source is the HSI (8 MHz) with 0 WS and
 196:Drivers/STM32F0xx_HAL_Driver/Src/stm32f0xx_hal_rcc.c ****           prefetch is disabled.
 197:Drivers/STM32F0xx_HAL_Driver/Src/stm32f0xx_hal_rcc.c ****   @endverbatim
 198:Drivers/STM32F0xx_HAL_Driver/Src/stm32f0xx_hal_rcc.c ****   * @{
 199:Drivers/STM32F0xx_HAL_Driver/Src/stm32f0xx_hal_rcc.c ****   */
 200:Drivers/STM32F0xx_HAL_Driver/Src/stm32f0xx_hal_rcc.c ****   
 201:Drivers/STM32F0xx_HAL_Driver/Src/stm32f0xx_hal_rcc.c **** /*
 202:Drivers/STM32F0xx_HAL_Driver/Src/stm32f0xx_hal_rcc.c ****   Additional consideration on the SYSCLK based on Latency settings:
 203:Drivers/STM32F0xx_HAL_Driver/Src/stm32f0xx_hal_rcc.c ****           +-----------------------------------------------+
 204:Drivers/STM32F0xx_HAL_Driver/Src/stm32f0xx_hal_rcc.c ****           | Latency       | SYSCLK clock frequency (MHz)  |
ARM GAS  /tmp/ccVTF5Db.s 			page 5


 205:Drivers/STM32F0xx_HAL_Driver/Src/stm32f0xx_hal_rcc.c ****           |---------------|-------------------------------|
 206:Drivers/STM32F0xx_HAL_Driver/Src/stm32f0xx_hal_rcc.c ****           |0WS(1CPU cycle)|       0 < SYSCLK <= 24        |
 207:Drivers/STM32F0xx_HAL_Driver/Src/stm32f0xx_hal_rcc.c ****           |---------------|-------------------------------|
 208:Drivers/STM32F0xx_HAL_Driver/Src/stm32f0xx_hal_rcc.c ****           |1WS(2CPU cycle)|      24 < SYSCLK <= 48        |
 209:Drivers/STM32F0xx_HAL_Driver/Src/stm32f0xx_hal_rcc.c ****           +-----------------------------------------------+
 210:Drivers/STM32F0xx_HAL_Driver/Src/stm32f0xx_hal_rcc.c ****   */
 211:Drivers/STM32F0xx_HAL_Driver/Src/stm32f0xx_hal_rcc.c **** 
 212:Drivers/STM32F0xx_HAL_Driver/Src/stm32f0xx_hal_rcc.c **** /**
 213:Drivers/STM32F0xx_HAL_Driver/Src/stm32f0xx_hal_rcc.c ****   * @brief  Resets the RCC clock configuration to the default reset state.
 214:Drivers/STM32F0xx_HAL_Driver/Src/stm32f0xx_hal_rcc.c ****   * @note   The default reset state of the clock configuration is given below:
 215:Drivers/STM32F0xx_HAL_Driver/Src/stm32f0xx_hal_rcc.c ****   *            - HSI ON and used as system clock source
 216:Drivers/STM32F0xx_HAL_Driver/Src/stm32f0xx_hal_rcc.c ****   *            - HSE and PLL OFF
 217:Drivers/STM32F0xx_HAL_Driver/Src/stm32f0xx_hal_rcc.c ****   *            - AHB, APB1 prescaler set to 1.
 218:Drivers/STM32F0xx_HAL_Driver/Src/stm32f0xx_hal_rcc.c ****   *            - CSS and MCO1 OFF
 219:Drivers/STM32F0xx_HAL_Driver/Src/stm32f0xx_hal_rcc.c ****   *            - All interrupts disabled
 220:Drivers/STM32F0xx_HAL_Driver/Src/stm32f0xx_hal_rcc.c ****   * @note   This function does not modify the configuration of the
 221:Drivers/STM32F0xx_HAL_Driver/Src/stm32f0xx_hal_rcc.c ****   *            - Peripheral clocks
 222:Drivers/STM32F0xx_HAL_Driver/Src/stm32f0xx_hal_rcc.c ****   *            - LSI, LSE and RTC clocks
 223:Drivers/STM32F0xx_HAL_Driver/Src/stm32f0xx_hal_rcc.c ****   * @retval None
 224:Drivers/STM32F0xx_HAL_Driver/Src/stm32f0xx_hal_rcc.c ****   */
 225:Drivers/STM32F0xx_HAL_Driver/Src/stm32f0xx_hal_rcc.c **** void HAL_RCC_DeInit(void)
 226:Drivers/STM32F0xx_HAL_Driver/Src/stm32f0xx_hal_rcc.c **** {
  26              		.loc 1 226 0
  27              		.cfi_startproc
  28              		@ args = 0, pretend = 0, frame = 0
  29              		@ frame_needed = 0, uses_anonymous_args = 0
  30              		@ link register save eliminated.
 227:Drivers/STM32F0xx_HAL_Driver/Src/stm32f0xx_hal_rcc.c ****   /* Set HSION bit, HSITRIM[4:0] bits to the reset value*/
 228:Drivers/STM32F0xx_HAL_Driver/Src/stm32f0xx_hal_rcc.c ****   SET_BIT(RCC->CR, RCC_CR_HSION | RCC_CR_HSITRIM_4); 
  31              		.loc 1 228 0
  32 0000 0C4B     		ldr	r3, .L2
  33 0002 1A68     		ldr	r2, [r3]
  34 0004 8121     		movs	r1, #129
  35 0006 0A43     		orrs	r2, r1
  36 0008 1A60     		str	r2, [r3]
 229:Drivers/STM32F0xx_HAL_Driver/Src/stm32f0xx_hal_rcc.c **** 
 230:Drivers/STM32F0xx_HAL_Driver/Src/stm32f0xx_hal_rcc.c ****   /* Reset SW[1:0], HPRE[3:0], PPRE[2:0] and MCOSEL[2:0] bits */
 231:Drivers/STM32F0xx_HAL_Driver/Src/stm32f0xx_hal_rcc.c ****   CLEAR_BIT(RCC->CFGR, RCC_CFGR_SW | RCC_CFGR_HPRE | RCC_CFGR_PPRE | RCC_CFGR_MCO);
  37              		.loc 1 231 0
  38 000a 5A68     		ldr	r2, [r3, #4]
  39 000c 0A49     		ldr	r1, .L2+4
  40 000e 0A40     		ands	r2, r1
  41 0010 5A60     		str	r2, [r3, #4]
 232:Drivers/STM32F0xx_HAL_Driver/Src/stm32f0xx_hal_rcc.c **** 
 233:Drivers/STM32F0xx_HAL_Driver/Src/stm32f0xx_hal_rcc.c ****   /* Reset HSEON, CSSON, PLLON bits */
 234:Drivers/STM32F0xx_HAL_Driver/Src/stm32f0xx_hal_rcc.c ****   CLEAR_BIT(RCC->CR, RCC_CR_PLLON | RCC_CR_CSSON | RCC_CR_HSEON);
  42              		.loc 1 234 0
  43 0012 1A68     		ldr	r2, [r3]
  44 0014 0949     		ldr	r1, .L2+8
  45 0016 0A40     		ands	r2, r1
  46 0018 1A60     		str	r2, [r3]
 235:Drivers/STM32F0xx_HAL_Driver/Src/stm32f0xx_hal_rcc.c ****   
 236:Drivers/STM32F0xx_HAL_Driver/Src/stm32f0xx_hal_rcc.c ****   /* Reset HSEBYP bit */
 237:Drivers/STM32F0xx_HAL_Driver/Src/stm32f0xx_hal_rcc.c ****   CLEAR_BIT(RCC->CR, RCC_CR_HSEBYP);
  47              		.loc 1 237 0
  48 001a 1A68     		ldr	r2, [r3]
  49 001c 0849     		ldr	r1, .L2+12
ARM GAS  /tmp/ccVTF5Db.s 			page 6


  50 001e 0A40     		ands	r2, r1
  51 0020 1A60     		str	r2, [r3]
 238:Drivers/STM32F0xx_HAL_Driver/Src/stm32f0xx_hal_rcc.c **** 
 239:Drivers/STM32F0xx_HAL_Driver/Src/stm32f0xx_hal_rcc.c ****   /* Reset CFGR register */
 240:Drivers/STM32F0xx_HAL_Driver/Src/stm32f0xx_hal_rcc.c ****   CLEAR_REG(RCC->CFGR);
  52              		.loc 1 240 0
  53 0022 0022     		movs	r2, #0
  54 0024 5A60     		str	r2, [r3, #4]
 241:Drivers/STM32F0xx_HAL_Driver/Src/stm32f0xx_hal_rcc.c ****   
 242:Drivers/STM32F0xx_HAL_Driver/Src/stm32f0xx_hal_rcc.c ****   /* Reset CFGR2 register */
 243:Drivers/STM32F0xx_HAL_Driver/Src/stm32f0xx_hal_rcc.c ****   CLEAR_REG(RCC->CFGR2);
  55              		.loc 1 243 0
  56 0026 DA62     		str	r2, [r3, #44]
 244:Drivers/STM32F0xx_HAL_Driver/Src/stm32f0xx_hal_rcc.c ****   
 245:Drivers/STM32F0xx_HAL_Driver/Src/stm32f0xx_hal_rcc.c ****   /* Reset CFGR3 register */
 246:Drivers/STM32F0xx_HAL_Driver/Src/stm32f0xx_hal_rcc.c ****   CLEAR_REG(RCC->CFGR3);
  57              		.loc 1 246 0
  58 0028 1A63     		str	r2, [r3, #48]
 247:Drivers/STM32F0xx_HAL_Driver/Src/stm32f0xx_hal_rcc.c ****   
 248:Drivers/STM32F0xx_HAL_Driver/Src/stm32f0xx_hal_rcc.c ****   /* Disable all interrupts */
 249:Drivers/STM32F0xx_HAL_Driver/Src/stm32f0xx_hal_rcc.c ****   CLEAR_REG(RCC->CIR);
  59              		.loc 1 249 0
  60 002a 9A60     		str	r2, [r3, #8]
 250:Drivers/STM32F0xx_HAL_Driver/Src/stm32f0xx_hal_rcc.c **** 
 251:Drivers/STM32F0xx_HAL_Driver/Src/stm32f0xx_hal_rcc.c ****   /* Update the SystemCoreClock global variable */
 252:Drivers/STM32F0xx_HAL_Driver/Src/stm32f0xx_hal_rcc.c ****   SystemCoreClock = HSI_VALUE;
  61              		.loc 1 252 0
  62 002c 054B     		ldr	r3, .L2+16
  63 002e 064A     		ldr	r2, .L2+20
  64 0030 1A60     		str	r2, [r3]
 253:Drivers/STM32F0xx_HAL_Driver/Src/stm32f0xx_hal_rcc.c **** }
  65              		.loc 1 253 0
  66              		@ sp needed
  67 0032 7047     		bx	lr
  68              	.L3:
  69              		.align	2
  70              	.L2:
  71 0034 00100240 		.word	1073876992
  72 0038 0CF8FFF0 		.word	-251660276
  73 003c FFFFF6FE 		.word	-17367041
  74 0040 FFFFFBFF 		.word	-262145
  75 0044 00000000 		.word	SystemCoreClock
  76 0048 00127A00 		.word	8000000
  77              		.cfi_endproc
  78              	.LFE37:
  80              		.section	.text.HAL_RCC_OscConfig,"ax",%progbits
  81              		.align	1
  82              		.global	HAL_RCC_OscConfig
  83              		.syntax unified
  84              		.code	16
  85              		.thumb_func
  86              		.fpu softvfp
  88              	HAL_RCC_OscConfig:
  89              	.LFB38:
 254:Drivers/STM32F0xx_HAL_Driver/Src/stm32f0xx_hal_rcc.c **** 
 255:Drivers/STM32F0xx_HAL_Driver/Src/stm32f0xx_hal_rcc.c **** /**
 256:Drivers/STM32F0xx_HAL_Driver/Src/stm32f0xx_hal_rcc.c ****   * @brief  Initializes the RCC Oscillators according to the specified parameters in the
ARM GAS  /tmp/ccVTF5Db.s 			page 7


 257:Drivers/STM32F0xx_HAL_Driver/Src/stm32f0xx_hal_rcc.c ****   *         RCC_OscInitTypeDef.
 258:Drivers/STM32F0xx_HAL_Driver/Src/stm32f0xx_hal_rcc.c ****   * @param  RCC_OscInitStruct pointer to an RCC_OscInitTypeDef structure that
 259:Drivers/STM32F0xx_HAL_Driver/Src/stm32f0xx_hal_rcc.c ****   *         contains the configuration information for the RCC Oscillators.
 260:Drivers/STM32F0xx_HAL_Driver/Src/stm32f0xx_hal_rcc.c ****   * @note   The PLL is not disabled when used as system clock.
 261:Drivers/STM32F0xx_HAL_Driver/Src/stm32f0xx_hal_rcc.c ****   * @note   Transitions LSE Bypass to LSE On and LSE On to LSE Bypass are not
 262:Drivers/STM32F0xx_HAL_Driver/Src/stm32f0xx_hal_rcc.c ****   *         supported by this macro. User should request a transition to LSE Off
 263:Drivers/STM32F0xx_HAL_Driver/Src/stm32f0xx_hal_rcc.c ****   *         first and then LSE On or LSE Bypass.
 264:Drivers/STM32F0xx_HAL_Driver/Src/stm32f0xx_hal_rcc.c ****   * @note   Transition HSE Bypass to HSE On and HSE On to HSE Bypass are not
 265:Drivers/STM32F0xx_HAL_Driver/Src/stm32f0xx_hal_rcc.c ****   *         supported by this macro. User should request a transition to HSE Off
 266:Drivers/STM32F0xx_HAL_Driver/Src/stm32f0xx_hal_rcc.c ****   *         first and then HSE On or HSE Bypass.
 267:Drivers/STM32F0xx_HAL_Driver/Src/stm32f0xx_hal_rcc.c ****   * @retval HAL status
 268:Drivers/STM32F0xx_HAL_Driver/Src/stm32f0xx_hal_rcc.c ****   */
 269:Drivers/STM32F0xx_HAL_Driver/Src/stm32f0xx_hal_rcc.c **** HAL_StatusTypeDef HAL_RCC_OscConfig(RCC_OscInitTypeDef  *RCC_OscInitStruct)
 270:Drivers/STM32F0xx_HAL_Driver/Src/stm32f0xx_hal_rcc.c **** {
  90              		.loc 1 270 0
  91              		.cfi_startproc
  92              		@ args = 0, pretend = 0, frame = 8
  93              		@ frame_needed = 0, uses_anonymous_args = 0
  94              	.LVL0:
  95 0000 70B5     		push	{r4, r5, r6, lr}
  96              	.LCFI0:
  97              		.cfi_def_cfa_offset 16
  98              		.cfi_offset 4, -16
  99              		.cfi_offset 5, -12
 100              		.cfi_offset 6, -8
 101              		.cfi_offset 14, -4
 102 0002 82B0     		sub	sp, sp, #8
 103              	.LCFI1:
 104              		.cfi_def_cfa_offset 24
 105 0004 041E     		subs	r4, r0, #0
 106              	.LVL1:
 271:Drivers/STM32F0xx_HAL_Driver/Src/stm32f0xx_hal_rcc.c ****    uint32_t tickstart = 0U;
 272:Drivers/STM32F0xx_HAL_Driver/Src/stm32f0xx_hal_rcc.c ****   
 273:Drivers/STM32F0xx_HAL_Driver/Src/stm32f0xx_hal_rcc.c ****   /* Check the parameters */
 274:Drivers/STM32F0xx_HAL_Driver/Src/stm32f0xx_hal_rcc.c ****   assert_param(RCC_OscInitStruct != NULL);
 107              		.loc 1 274 0
 108 0006 27D0     		beq	.L106
 109              	.LVL2:
 110              	.L5:
 275:Drivers/STM32F0xx_HAL_Driver/Src/stm32f0xx_hal_rcc.c ****   assert_param(IS_RCC_OSCILLATORTYPE(RCC_OscInitStruct->OscillatorType));
 111              		.loc 1 275 0
 112 0008 2368     		ldr	r3, [r4]
 113 000a 002B     		cmp	r3, #0
 114 000c 01D0     		beq	.L6
 115              		.loc 1 275 0 is_stmt 0 discriminator 1
 116 000e 9B06     		lsls	r3, r3, #26
 117 0010 28D0     		beq	.L107
 118              	.L6:
 276:Drivers/STM32F0xx_HAL_Driver/Src/stm32f0xx_hal_rcc.c **** 
 277:Drivers/STM32F0xx_HAL_Driver/Src/stm32f0xx_hal_rcc.c ****   /*------------------------------- HSE Configuration ------------------------*/ 
 278:Drivers/STM32F0xx_HAL_Driver/Src/stm32f0xx_hal_rcc.c ****   if(((RCC_OscInitStruct->OscillatorType) & RCC_OSCILLATORTYPE_HSE) == RCC_OSCILLATORTYPE_HSE)
 119              		.loc 1 278 0 is_stmt 1
 120 0012 2368     		ldr	r3, [r4]
 121 0014 DB07     		lsls	r3, r3, #31
 122 0016 42D5     		bpl	.L7
 279:Drivers/STM32F0xx_HAL_Driver/Src/stm32f0xx_hal_rcc.c ****   {
 280:Drivers/STM32F0xx_HAL_Driver/Src/stm32f0xx_hal_rcc.c ****     /* Check the parameters */
ARM GAS  /tmp/ccVTF5Db.s 			page 8


 281:Drivers/STM32F0xx_HAL_Driver/Src/stm32f0xx_hal_rcc.c ****     assert_param(IS_RCC_HSE(RCC_OscInitStruct->HSEState));
 123              		.loc 1 281 0
 124 0018 6368     		ldr	r3, [r4, #4]
 125 001a 012B     		cmp	r3, #1
 126 001c 01D9     		bls	.L8
 127              		.loc 1 281 0 is_stmt 0 discriminator 1
 128 001e 052B     		cmp	r3, #5
 129 0020 26D1     		bne	.L108
 130              	.L8:
 282:Drivers/STM32F0xx_HAL_Driver/Src/stm32f0xx_hal_rcc.c **** 
 283:Drivers/STM32F0xx_HAL_Driver/Src/stm32f0xx_hal_rcc.c ****     /* When the HSE is used as system clock or clock source for PLL in these cases it is not allowe
 284:Drivers/STM32F0xx_HAL_Driver/Src/stm32f0xx_hal_rcc.c ****     if((__HAL_RCC_GET_SYSCLK_SOURCE() == RCC_SYSCLKSOURCE_STATUS_HSE) 
 131              		.loc 1 284 0 is_stmt 1
 132 0022 C44B     		ldr	r3, .L136
 133 0024 5A68     		ldr	r2, [r3, #4]
 134 0026 0C23     		movs	r3, #12
 135 0028 1340     		ands	r3, r2
 136 002a 042B     		cmp	r3, #4
 137 002c 2FD0     		beq	.L9
 285:Drivers/STM32F0xx_HAL_Driver/Src/stm32f0xx_hal_rcc.c ****        || ((__HAL_RCC_GET_SYSCLK_SOURCE() == RCC_SYSCLKSOURCE_STATUS_PLLCLK) && (__HAL_RCC_GET_PLL_
 138              		.loc 1 285 0
 139 002e C14B     		ldr	r3, .L136
 140 0030 5A68     		ldr	r2, [r3, #4]
 141 0032 0C23     		movs	r3, #12
 142 0034 1340     		ands	r3, r2
 143 0036 082B     		cmp	r3, #8
 144 0038 20D0     		beq	.L109
 145              	.L10:
 286:Drivers/STM32F0xx_HAL_Driver/Src/stm32f0xx_hal_rcc.c ****     {
 287:Drivers/STM32F0xx_HAL_Driver/Src/stm32f0xx_hal_rcc.c ****       if((__HAL_RCC_GET_FLAG(RCC_FLAG_HSERDY) != RESET) && (RCC_OscInitStruct->HSEState == RCC_HSE_
 288:Drivers/STM32F0xx_HAL_Driver/Src/stm32f0xx_hal_rcc.c ****       {
 289:Drivers/STM32F0xx_HAL_Driver/Src/stm32f0xx_hal_rcc.c ****         return HAL_ERROR;
 290:Drivers/STM32F0xx_HAL_Driver/Src/stm32f0xx_hal_rcc.c ****       }
 291:Drivers/STM32F0xx_HAL_Driver/Src/stm32f0xx_hal_rcc.c ****     }
 292:Drivers/STM32F0xx_HAL_Driver/Src/stm32f0xx_hal_rcc.c ****     else
 293:Drivers/STM32F0xx_HAL_Driver/Src/stm32f0xx_hal_rcc.c ****     {
 294:Drivers/STM32F0xx_HAL_Driver/Src/stm32f0xx_hal_rcc.c ****       /* Set the new HSE configuration ---------------------------------------*/
 295:Drivers/STM32F0xx_HAL_Driver/Src/stm32f0xx_hal_rcc.c ****       __HAL_RCC_HSE_CONFIG(RCC_OscInitStruct->HSEState);
 146              		.loc 1 295 0
 147 003a 6368     		ldr	r3, [r4, #4]
 148 003c 012B     		cmp	r3, #1
 149 003e 5BD0     		beq	.L110
 150              		.loc 1 295 0 is_stmt 0 discriminator 2
 151 0040 002B     		cmp	r3, #0
 152 0042 70D1     		bne	.L14
 153              		.loc 1 295 0 discriminator 3
 154 0044 BB4B     		ldr	r3, .L136
 155 0046 1A68     		ldr	r2, [r3]
 156 0048 BB49     		ldr	r1, .L136+4
 157 004a 0A40     		ands	r2, r1
 158 004c 1A60     		str	r2, [r3]
 159 004e 1A68     		ldr	r2, [r3]
 160 0050 BA49     		ldr	r1, .L136+8
 161 0052 0A40     		ands	r2, r1
 162 0054 1A60     		str	r2, [r3]
 163 0056 55E0     		b	.L13
 164              	.LVL3:
ARM GAS  /tmp/ccVTF5Db.s 			page 9


 165              	.L106:
 274:Drivers/STM32F0xx_HAL_Driver/Src/stm32f0xx_hal_rcc.c ****   assert_param(IS_RCC_OSCILLATORTYPE(RCC_OscInitStruct->OscillatorType));
 166              		.loc 1 274 0 is_stmt 1 discriminator 1
 167 0058 8921     		movs	r1, #137
 168 005a 4900     		lsls	r1, r1, #1
 169 005c B848     		ldr	r0, .L136+12
 170              	.LVL4:
 171 005e FFF7FEFF 		bl	assert_failed
 172              	.LVL5:
 173 0062 D1E7     		b	.L5
 174              	.L107:
 275:Drivers/STM32F0xx_HAL_Driver/Src/stm32f0xx_hal_rcc.c **** 
 175              		.loc 1 275 0 discriminator 2
 176 0064 1421     		movs	r1, #20
 177 0066 FF31     		adds	r1, r1, #255
 178 0068 B548     		ldr	r0, .L136+12
 179 006a FFF7FEFF 		bl	assert_failed
 180              	.LVL6:
 181 006e D0E7     		b	.L6
 182              	.L108:
 281:Drivers/STM32F0xx_HAL_Driver/Src/stm32f0xx_hal_rcc.c **** 
 183              		.loc 1 281 0 discriminator 2
 184 0070 1A21     		movs	r1, #26
 185 0072 FF31     		adds	r1, r1, #255
 186 0074 B248     		ldr	r0, .L136+12
 187 0076 FFF7FEFF 		bl	assert_failed
 188              	.LVL7:
 189 007a D2E7     		b	.L8
 190              	.L109:
 285:Drivers/STM32F0xx_HAL_Driver/Src/stm32f0xx_hal_rcc.c ****     {
 191              		.loc 1 285 0 discriminator 1
 192 007c AD4B     		ldr	r3, .L136
 193 007e 5B68     		ldr	r3, [r3, #4]
 194 0080 C022     		movs	r2, #192
 195 0082 5202     		lsls	r2, r2, #9
 196 0084 1340     		ands	r3, r2
 197 0086 8022     		movs	r2, #128
 198 0088 5202     		lsls	r2, r2, #9
 199 008a 9342     		cmp	r3, r2
 200 008c D5D1     		bne	.L10
 201              	.L9:
 287:Drivers/STM32F0xx_HAL_Driver/Src/stm32f0xx_hal_rcc.c ****       {
 202              		.loc 1 287 0
 203 008e A94B     		ldr	r3, .L136
 204 0090 1B68     		ldr	r3, [r3]
 205 0092 9B03     		lsls	r3, r3, #14
 206 0094 03D5     		bpl	.L7
 287:Drivers/STM32F0xx_HAL_Driver/Src/stm32f0xx_hal_rcc.c ****       {
 207              		.loc 1 287 0 is_stmt 0 discriminator 1
 208 0096 6368     		ldr	r3, [r4, #4]
 209 0098 002B     		cmp	r3, #0
 210 009a 00D1     		bne	.LCB168
 211 009c FDE2     		b	.L111	@long jump
 212              	.LCB168:
 213              	.LVL8:
 214              	.L7:
 296:Drivers/STM32F0xx_HAL_Driver/Src/stm32f0xx_hal_rcc.c ****       
ARM GAS  /tmp/ccVTF5Db.s 			page 10


 297:Drivers/STM32F0xx_HAL_Driver/Src/stm32f0xx_hal_rcc.c **** 
 298:Drivers/STM32F0xx_HAL_Driver/Src/stm32f0xx_hal_rcc.c ****        /* Check the HSE State */
 299:Drivers/STM32F0xx_HAL_Driver/Src/stm32f0xx_hal_rcc.c ****       if(RCC_OscInitStruct->HSEState != RCC_HSE_OFF)
 300:Drivers/STM32F0xx_HAL_Driver/Src/stm32f0xx_hal_rcc.c ****       {
 301:Drivers/STM32F0xx_HAL_Driver/Src/stm32f0xx_hal_rcc.c ****         /* Get Start Tick */
 302:Drivers/STM32F0xx_HAL_Driver/Src/stm32f0xx_hal_rcc.c ****         tickstart = HAL_GetTick();
 303:Drivers/STM32F0xx_HAL_Driver/Src/stm32f0xx_hal_rcc.c ****         
 304:Drivers/STM32F0xx_HAL_Driver/Src/stm32f0xx_hal_rcc.c ****         /* Wait till HSE is ready */
 305:Drivers/STM32F0xx_HAL_Driver/Src/stm32f0xx_hal_rcc.c ****         while(__HAL_RCC_GET_FLAG(RCC_FLAG_HSERDY) == RESET)
 306:Drivers/STM32F0xx_HAL_Driver/Src/stm32f0xx_hal_rcc.c ****         {
 307:Drivers/STM32F0xx_HAL_Driver/Src/stm32f0xx_hal_rcc.c ****           if((HAL_GetTick() - tickstart ) > HSE_TIMEOUT_VALUE)
 308:Drivers/STM32F0xx_HAL_Driver/Src/stm32f0xx_hal_rcc.c ****           {
 309:Drivers/STM32F0xx_HAL_Driver/Src/stm32f0xx_hal_rcc.c ****             return HAL_TIMEOUT;
 310:Drivers/STM32F0xx_HAL_Driver/Src/stm32f0xx_hal_rcc.c ****           }
 311:Drivers/STM32F0xx_HAL_Driver/Src/stm32f0xx_hal_rcc.c ****         }
 312:Drivers/STM32F0xx_HAL_Driver/Src/stm32f0xx_hal_rcc.c ****       }
 313:Drivers/STM32F0xx_HAL_Driver/Src/stm32f0xx_hal_rcc.c ****       else
 314:Drivers/STM32F0xx_HAL_Driver/Src/stm32f0xx_hal_rcc.c ****       {
 315:Drivers/STM32F0xx_HAL_Driver/Src/stm32f0xx_hal_rcc.c ****         /* Get Start Tick */
 316:Drivers/STM32F0xx_HAL_Driver/Src/stm32f0xx_hal_rcc.c ****         tickstart = HAL_GetTick();
 317:Drivers/STM32F0xx_HAL_Driver/Src/stm32f0xx_hal_rcc.c ****         
 318:Drivers/STM32F0xx_HAL_Driver/Src/stm32f0xx_hal_rcc.c ****         /* Wait till HSE is disabled */
 319:Drivers/STM32F0xx_HAL_Driver/Src/stm32f0xx_hal_rcc.c ****         while(__HAL_RCC_GET_FLAG(RCC_FLAG_HSERDY) != RESET)
 320:Drivers/STM32F0xx_HAL_Driver/Src/stm32f0xx_hal_rcc.c ****         {
 321:Drivers/STM32F0xx_HAL_Driver/Src/stm32f0xx_hal_rcc.c ****            if((HAL_GetTick() - tickstart ) > HSE_TIMEOUT_VALUE)
 322:Drivers/STM32F0xx_HAL_Driver/Src/stm32f0xx_hal_rcc.c ****           {
 323:Drivers/STM32F0xx_HAL_Driver/Src/stm32f0xx_hal_rcc.c ****             return HAL_TIMEOUT;
 324:Drivers/STM32F0xx_HAL_Driver/Src/stm32f0xx_hal_rcc.c ****           }
 325:Drivers/STM32F0xx_HAL_Driver/Src/stm32f0xx_hal_rcc.c ****         }
 326:Drivers/STM32F0xx_HAL_Driver/Src/stm32f0xx_hal_rcc.c ****       }
 327:Drivers/STM32F0xx_HAL_Driver/Src/stm32f0xx_hal_rcc.c ****     }
 328:Drivers/STM32F0xx_HAL_Driver/Src/stm32f0xx_hal_rcc.c ****   }
 329:Drivers/STM32F0xx_HAL_Driver/Src/stm32f0xx_hal_rcc.c ****   /*----------------------------- HSI Configuration --------------------------*/ 
 330:Drivers/STM32F0xx_HAL_Driver/Src/stm32f0xx_hal_rcc.c ****   if(((RCC_OscInitStruct->OscillatorType) & RCC_OSCILLATORTYPE_HSI) == RCC_OSCILLATORTYPE_HSI)
 215              		.loc 1 330 0 is_stmt 1
 216 009e 2368     		ldr	r3, [r4]
 217 00a0 9B07     		lsls	r3, r3, #30
 218 00a2 00D4     		bmi	.LCB177
 219 00a4 8BE0     		b	.L21	@long jump
 220              	.LCB177:
 331:Drivers/STM32F0xx_HAL_Driver/Src/stm32f0xx_hal_rcc.c ****   {
 332:Drivers/STM32F0xx_HAL_Driver/Src/stm32f0xx_hal_rcc.c ****     /* Check the parameters */
 333:Drivers/STM32F0xx_HAL_Driver/Src/stm32f0xx_hal_rcc.c ****     assert_param(IS_RCC_HSI(RCC_OscInitStruct->HSIState));
 221              		.loc 1 333 0
 222 00a6 E368     		ldr	r3, [r4, #12]
 223 00a8 012B     		cmp	r3, #1
 224 00aa 62D8     		bhi	.L112
 225              	.L22:
 334:Drivers/STM32F0xx_HAL_Driver/Src/stm32f0xx_hal_rcc.c ****     assert_param(IS_RCC_CALIBRATION_VALUE(RCC_OscInitStruct->HSICalibrationValue));
 226              		.loc 1 334 0
 227 00ac 2369     		ldr	r3, [r4, #16]
 228 00ae 1F2B     		cmp	r3, #31
 229 00b0 65D8     		bhi	.L113
 230              	.L23:
 335:Drivers/STM32F0xx_HAL_Driver/Src/stm32f0xx_hal_rcc.c ****     
 336:Drivers/STM32F0xx_HAL_Driver/Src/stm32f0xx_hal_rcc.c ****     /* Check if HSI is used as system clock or as PLL source when PLL is selected as system clock *
 337:Drivers/STM32F0xx_HAL_Driver/Src/stm32f0xx_hal_rcc.c ****     if((__HAL_RCC_GET_SYSCLK_SOURCE() == RCC_SYSCLKSOURCE_STATUS_HSI) 
ARM GAS  /tmp/ccVTF5Db.s 			page 11


 231              		.loc 1 337 0
 232 00b2 A04B     		ldr	r3, .L136
 233 00b4 5B68     		ldr	r3, [r3, #4]
 234 00b6 0C22     		movs	r2, #12
 235 00b8 1A42     		tst	r2, r3
 236 00ba 6FD0     		beq	.L24
 338:Drivers/STM32F0xx_HAL_Driver/Src/stm32f0xx_hal_rcc.c ****        || ((__HAL_RCC_GET_SYSCLK_SOURCE() == RCC_SYSCLKSOURCE_STATUS_PLLCLK) && (__HAL_RCC_GET_PLL_
 237              		.loc 1 338 0
 238 00bc 9D4B     		ldr	r3, .L136
 239 00be 5A68     		ldr	r2, [r3, #4]
 240 00c0 0C23     		movs	r3, #12
 241 00c2 1340     		ands	r3, r2
 242 00c4 082B     		cmp	r3, #8
 243 00c6 60D0     		beq	.L114
 244              	.L25:
 339:Drivers/STM32F0xx_HAL_Driver/Src/stm32f0xx_hal_rcc.c ****     {
 340:Drivers/STM32F0xx_HAL_Driver/Src/stm32f0xx_hal_rcc.c ****       /* When HSI is used as system clock it will not disabled */
 341:Drivers/STM32F0xx_HAL_Driver/Src/stm32f0xx_hal_rcc.c ****       if((__HAL_RCC_GET_FLAG(RCC_FLAG_HSIRDY) != RESET) && (RCC_OscInitStruct->HSIState != RCC_HSI_
 342:Drivers/STM32F0xx_HAL_Driver/Src/stm32f0xx_hal_rcc.c ****       {
 343:Drivers/STM32F0xx_HAL_Driver/Src/stm32f0xx_hal_rcc.c ****         return HAL_ERROR;
 344:Drivers/STM32F0xx_HAL_Driver/Src/stm32f0xx_hal_rcc.c ****       }
 345:Drivers/STM32F0xx_HAL_Driver/Src/stm32f0xx_hal_rcc.c ****       /* Otherwise, just the calibration is allowed */
 346:Drivers/STM32F0xx_HAL_Driver/Src/stm32f0xx_hal_rcc.c ****       else
 347:Drivers/STM32F0xx_HAL_Driver/Src/stm32f0xx_hal_rcc.c ****       {
 348:Drivers/STM32F0xx_HAL_Driver/Src/stm32f0xx_hal_rcc.c ****         /* Adjusts the Internal High Speed oscillator (HSI) calibration value.*/
 349:Drivers/STM32F0xx_HAL_Driver/Src/stm32f0xx_hal_rcc.c ****         __HAL_RCC_HSI_CALIBRATIONVALUE_ADJUST(RCC_OscInitStruct->HSICalibrationValue);
 350:Drivers/STM32F0xx_HAL_Driver/Src/stm32f0xx_hal_rcc.c ****       }
 351:Drivers/STM32F0xx_HAL_Driver/Src/stm32f0xx_hal_rcc.c ****     }
 352:Drivers/STM32F0xx_HAL_Driver/Src/stm32f0xx_hal_rcc.c ****     else
 353:Drivers/STM32F0xx_HAL_Driver/Src/stm32f0xx_hal_rcc.c ****     {
 354:Drivers/STM32F0xx_HAL_Driver/Src/stm32f0xx_hal_rcc.c ****       /* Check the HSI State */
 355:Drivers/STM32F0xx_HAL_Driver/Src/stm32f0xx_hal_rcc.c ****       if(RCC_OscInitStruct->HSIState != RCC_HSI_OFF)
 245              		.loc 1 355 0
 246 00c8 E368     		ldr	r3, [r4, #12]
 247 00ca 002B     		cmp	r3, #0
 248 00cc 00D1     		bne	.LCB204
 249 00ce 9BE0     		b	.L27	@long jump
 250              	.LCB204:
 356:Drivers/STM32F0xx_HAL_Driver/Src/stm32f0xx_hal_rcc.c ****       {
 357:Drivers/STM32F0xx_HAL_Driver/Src/stm32f0xx_hal_rcc.c ****        /* Enable the Internal High Speed oscillator (HSI). */
 358:Drivers/STM32F0xx_HAL_Driver/Src/stm32f0xx_hal_rcc.c ****         __HAL_RCC_HSI_ENABLE();
 251              		.loc 1 358 0
 252 00d0 984A     		ldr	r2, .L136
 253 00d2 1368     		ldr	r3, [r2]
 254 00d4 0121     		movs	r1, #1
 255 00d6 0B43     		orrs	r3, r1
 256 00d8 1360     		str	r3, [r2]
 359:Drivers/STM32F0xx_HAL_Driver/Src/stm32f0xx_hal_rcc.c ****         
 360:Drivers/STM32F0xx_HAL_Driver/Src/stm32f0xx_hal_rcc.c ****         /* Get Start Tick */
 361:Drivers/STM32F0xx_HAL_Driver/Src/stm32f0xx_hal_rcc.c ****         tickstart = HAL_GetTick();
 257              		.loc 1 361 0
 258 00da FFF7FEFF 		bl	HAL_GetTick
 259              	.LVL9:
 260 00de 0500     		movs	r5, r0
 261              	.LVL10:
 262              	.L28:
 362:Drivers/STM32F0xx_HAL_Driver/Src/stm32f0xx_hal_rcc.c ****         
ARM GAS  /tmp/ccVTF5Db.s 			page 12


 363:Drivers/STM32F0xx_HAL_Driver/Src/stm32f0xx_hal_rcc.c ****         /* Wait till HSI is ready */
 364:Drivers/STM32F0xx_HAL_Driver/Src/stm32f0xx_hal_rcc.c ****         while(__HAL_RCC_GET_FLAG(RCC_FLAG_HSIRDY) == RESET)
 263              		.loc 1 364 0
 264 00e0 944B     		ldr	r3, .L136
 265 00e2 1B68     		ldr	r3, [r3]
 266 00e4 9B07     		lsls	r3, r3, #30
 267 00e6 00D5     		bpl	.LCB222
 268 00e8 85E0     		b	.L115	@long jump
 269              	.LCB222:
 365:Drivers/STM32F0xx_HAL_Driver/Src/stm32f0xx_hal_rcc.c ****         {
 366:Drivers/STM32F0xx_HAL_Driver/Src/stm32f0xx_hal_rcc.c ****           if((HAL_GetTick() - tickstart ) > HSI_TIMEOUT_VALUE)
 270              		.loc 1 366 0
 271 00ea FFF7FEFF 		bl	HAL_GetTick
 272              	.LVL11:
 273 00ee 401B     		subs	r0, r0, r5
 274 00f0 0228     		cmp	r0, #2
 275 00f2 F5D9     		bls	.L28
 367:Drivers/STM32F0xx_HAL_Driver/Src/stm32f0xx_hal_rcc.c ****           {
 368:Drivers/STM32F0xx_HAL_Driver/Src/stm32f0xx_hal_rcc.c ****             return HAL_TIMEOUT;
 276              		.loc 1 368 0
 277 00f4 0320     		movs	r0, #3
 278 00f6 D3E2     		b	.L11
 279              	.LVL12:
 280              	.L110:
 295:Drivers/STM32F0xx_HAL_Driver/Src/stm32f0xx_hal_rcc.c ****       
 281              		.loc 1 295 0 discriminator 1
 282 00f8 8E4A     		ldr	r2, .L136
 283 00fa 1168     		ldr	r1, [r2]
 284 00fc 8023     		movs	r3, #128
 285 00fe 5B02     		lsls	r3, r3, #9
 286 0100 0B43     		orrs	r3, r1
 287 0102 1360     		str	r3, [r2]
 288              	.L13:
 299:Drivers/STM32F0xx_HAL_Driver/Src/stm32f0xx_hal_rcc.c ****       {
 289              		.loc 1 299 0
 290 0104 6368     		ldr	r3, [r4, #4]
 291 0106 002B     		cmp	r3, #0
 292 0108 25D0     		beq	.L16
 302:Drivers/STM32F0xx_HAL_Driver/Src/stm32f0xx_hal_rcc.c ****         
 293              		.loc 1 302 0
 294 010a FFF7FEFF 		bl	HAL_GetTick
 295              	.LVL13:
 296 010e 0500     		movs	r5, r0
 297              	.LVL14:
 298              	.L17:
 305:Drivers/STM32F0xx_HAL_Driver/Src/stm32f0xx_hal_rcc.c ****         {
 299              		.loc 1 305 0
 300 0110 884B     		ldr	r3, .L136
 301 0112 1B68     		ldr	r3, [r3]
 302 0114 9B03     		lsls	r3, r3, #14
 303 0116 C2D4     		bmi	.L7
 307:Drivers/STM32F0xx_HAL_Driver/Src/stm32f0xx_hal_rcc.c ****           {
 304              		.loc 1 307 0
 305 0118 FFF7FEFF 		bl	HAL_GetTick
 306              	.LVL15:
 307 011c 401B     		subs	r0, r0, r5
 308 011e 6428     		cmp	r0, #100
ARM GAS  /tmp/ccVTF5Db.s 			page 13


 309 0120 F6D9     		bls	.L17
 309:Drivers/STM32F0xx_HAL_Driver/Src/stm32f0xx_hal_rcc.c ****           }
 310              		.loc 1 309 0
 311 0122 0320     		movs	r0, #3
 312 0124 BCE2     		b	.L11
 313              	.LVL16:
 314              	.L14:
 295:Drivers/STM32F0xx_HAL_Driver/Src/stm32f0xx_hal_rcc.c ****       
 315              		.loc 1 295 0 discriminator 4
 316 0126 052B     		cmp	r3, #5
 317 0128 09D0     		beq	.L116
 295:Drivers/STM32F0xx_HAL_Driver/Src/stm32f0xx_hal_rcc.c ****       
 318              		.loc 1 295 0 is_stmt 0 discriminator 6
 319 012a 824B     		ldr	r3, .L136
 320 012c 1A68     		ldr	r2, [r3]
 321 012e 8249     		ldr	r1, .L136+4
 322 0130 0A40     		ands	r2, r1
 323 0132 1A60     		str	r2, [r3]
 324 0134 1A68     		ldr	r2, [r3]
 325 0136 8149     		ldr	r1, .L136+8
 326 0138 0A40     		ands	r2, r1
 327 013a 1A60     		str	r2, [r3]
 328 013c E2E7     		b	.L13
 329              	.L116:
 295:Drivers/STM32F0xx_HAL_Driver/Src/stm32f0xx_hal_rcc.c ****       
 330              		.loc 1 295 0 discriminator 5
 331 013e 7D4B     		ldr	r3, .L136
 332 0140 1968     		ldr	r1, [r3]
 333 0142 8022     		movs	r2, #128
 334 0144 D202     		lsls	r2, r2, #11
 335 0146 0A43     		orrs	r2, r1
 336 0148 1A60     		str	r2, [r3]
 337 014a 1968     		ldr	r1, [r3]
 338 014c 8022     		movs	r2, #128
 339 014e 5202     		lsls	r2, r2, #9
 340 0150 0A43     		orrs	r2, r1
 341 0152 1A60     		str	r2, [r3]
 342 0154 D6E7     		b	.L13
 343              	.L16:
 316:Drivers/STM32F0xx_HAL_Driver/Src/stm32f0xx_hal_rcc.c ****         
 344              		.loc 1 316 0 is_stmt 1
 345 0156 FFF7FEFF 		bl	HAL_GetTick
 346              	.LVL17:
 347 015a 0500     		movs	r5, r0
 348              	.LVL18:
 349              	.L19:
 319:Drivers/STM32F0xx_HAL_Driver/Src/stm32f0xx_hal_rcc.c ****         {
 350              		.loc 1 319 0
 351 015c 754B     		ldr	r3, .L136
 352 015e 1B68     		ldr	r3, [r3]
 353 0160 9B03     		lsls	r3, r3, #14
 354 0162 9CD5     		bpl	.L7
 321:Drivers/STM32F0xx_HAL_Driver/Src/stm32f0xx_hal_rcc.c ****           {
 355              		.loc 1 321 0
 356 0164 FFF7FEFF 		bl	HAL_GetTick
 357              	.LVL19:
 358 0168 401B     		subs	r0, r0, r5
ARM GAS  /tmp/ccVTF5Db.s 			page 14


 359 016a 6428     		cmp	r0, #100
 360 016c F6D9     		bls	.L19
 323:Drivers/STM32F0xx_HAL_Driver/Src/stm32f0xx_hal_rcc.c ****           }
 361              		.loc 1 323 0
 362 016e 0320     		movs	r0, #3
 363 0170 96E2     		b	.L11
 364              	.LVL20:
 365              	.L112:
 333:Drivers/STM32F0xx_HAL_Driver/Src/stm32f0xx_hal_rcc.c ****     assert_param(IS_RCC_CALIBRATION_VALUE(RCC_OscInitStruct->HSICalibrationValue));
 366              		.loc 1 333 0 discriminator 1
 367 0172 4E21     		movs	r1, #78
 368 0174 FF31     		adds	r1, r1, #255
 369 0176 7248     		ldr	r0, .L136+12
 370 0178 FFF7FEFF 		bl	assert_failed
 371              	.LVL21:
 372 017c 96E7     		b	.L22
 373              	.L113:
 334:Drivers/STM32F0xx_HAL_Driver/Src/stm32f0xx_hal_rcc.c ****     
 374              		.loc 1 334 0 discriminator 1
 375 017e A721     		movs	r1, #167
 376 0180 4900     		lsls	r1, r1, #1
 377 0182 6F48     		ldr	r0, .L136+12
 378 0184 FFF7FEFF 		bl	assert_failed
 379              	.LVL22:
 380 0188 93E7     		b	.L23
 381              	.L114:
 338:Drivers/STM32F0xx_HAL_Driver/Src/stm32f0xx_hal_rcc.c ****     {
 382              		.loc 1 338 0 discriminator 1
 383 018a 6A4B     		ldr	r3, .L136
 384 018c 5B68     		ldr	r3, [r3, #4]
 385 018e C022     		movs	r2, #192
 386 0190 5202     		lsls	r2, r2, #9
 387 0192 1340     		ands	r3, r2
 388 0194 8022     		movs	r2, #128
 389 0196 1202     		lsls	r2, r2, #8
 390 0198 9342     		cmp	r3, r2
 391 019a 95D1     		bne	.L25
 392              	.L24:
 341:Drivers/STM32F0xx_HAL_Driver/Src/stm32f0xx_hal_rcc.c ****       {
 393              		.loc 1 341 0
 394 019c 654B     		ldr	r3, .L136
 395 019e 1B68     		ldr	r3, [r3]
 396 01a0 9B07     		lsls	r3, r3, #30
 397 01a2 04D5     		bpl	.L26
 341:Drivers/STM32F0xx_HAL_Driver/Src/stm32f0xx_hal_rcc.c ****       {
 398              		.loc 1 341 0 is_stmt 0 discriminator 1
 399 01a4 E368     		ldr	r3, [r4, #12]
 400 01a6 012B     		cmp	r3, #1
 401 01a8 01D0     		beq	.L26
 343:Drivers/STM32F0xx_HAL_Driver/Src/stm32f0xx_hal_rcc.c ****       }
 402              		.loc 1 343 0 is_stmt 1
 403 01aa 0120     		movs	r0, #1
 404 01ac 78E2     		b	.L11
 405              	.L26:
 349:Drivers/STM32F0xx_HAL_Driver/Src/stm32f0xx_hal_rcc.c ****       }
 406              		.loc 1 349 0
 407 01ae 6149     		ldr	r1, .L136
ARM GAS  /tmp/ccVTF5Db.s 			page 15


 408 01b0 0B68     		ldr	r3, [r1]
 409 01b2 F822     		movs	r2, #248
 410 01b4 9343     		bics	r3, r2
 411 01b6 2269     		ldr	r2, [r4, #16]
 412 01b8 D200     		lsls	r2, r2, #3
 413 01ba 1343     		orrs	r3, r2
 414 01bc 0B60     		str	r3, [r1]
 415              	.L21:
 369:Drivers/STM32F0xx_HAL_Driver/Src/stm32f0xx_hal_rcc.c ****           }
 370:Drivers/STM32F0xx_HAL_Driver/Src/stm32f0xx_hal_rcc.c ****         }
 371:Drivers/STM32F0xx_HAL_Driver/Src/stm32f0xx_hal_rcc.c ****                 
 372:Drivers/STM32F0xx_HAL_Driver/Src/stm32f0xx_hal_rcc.c ****         /* Adjusts the Internal High Speed oscillator (HSI) calibration value.*/
 373:Drivers/STM32F0xx_HAL_Driver/Src/stm32f0xx_hal_rcc.c ****         __HAL_RCC_HSI_CALIBRATIONVALUE_ADJUST(RCC_OscInitStruct->HSICalibrationValue);
 374:Drivers/STM32F0xx_HAL_Driver/Src/stm32f0xx_hal_rcc.c ****       }
 375:Drivers/STM32F0xx_HAL_Driver/Src/stm32f0xx_hal_rcc.c ****       else
 376:Drivers/STM32F0xx_HAL_Driver/Src/stm32f0xx_hal_rcc.c ****       {
 377:Drivers/STM32F0xx_HAL_Driver/Src/stm32f0xx_hal_rcc.c ****         /* Disable the Internal High Speed oscillator (HSI). */
 378:Drivers/STM32F0xx_HAL_Driver/Src/stm32f0xx_hal_rcc.c ****         __HAL_RCC_HSI_DISABLE();
 379:Drivers/STM32F0xx_HAL_Driver/Src/stm32f0xx_hal_rcc.c ****         
 380:Drivers/STM32F0xx_HAL_Driver/Src/stm32f0xx_hal_rcc.c ****         /* Get Start Tick */
 381:Drivers/STM32F0xx_HAL_Driver/Src/stm32f0xx_hal_rcc.c ****         tickstart = HAL_GetTick();
 382:Drivers/STM32F0xx_HAL_Driver/Src/stm32f0xx_hal_rcc.c ****         
 383:Drivers/STM32F0xx_HAL_Driver/Src/stm32f0xx_hal_rcc.c ****         /* Wait till HSI is disabled */
 384:Drivers/STM32F0xx_HAL_Driver/Src/stm32f0xx_hal_rcc.c ****         while(__HAL_RCC_GET_FLAG(RCC_FLAG_HSIRDY) != RESET)
 385:Drivers/STM32F0xx_HAL_Driver/Src/stm32f0xx_hal_rcc.c ****         {
 386:Drivers/STM32F0xx_HAL_Driver/Src/stm32f0xx_hal_rcc.c ****           if((HAL_GetTick() - tickstart ) > HSI_TIMEOUT_VALUE)
 387:Drivers/STM32F0xx_HAL_Driver/Src/stm32f0xx_hal_rcc.c ****           {
 388:Drivers/STM32F0xx_HAL_Driver/Src/stm32f0xx_hal_rcc.c ****             return HAL_TIMEOUT;
 389:Drivers/STM32F0xx_HAL_Driver/Src/stm32f0xx_hal_rcc.c ****           }
 390:Drivers/STM32F0xx_HAL_Driver/Src/stm32f0xx_hal_rcc.c ****         }
 391:Drivers/STM32F0xx_HAL_Driver/Src/stm32f0xx_hal_rcc.c ****       }
 392:Drivers/STM32F0xx_HAL_Driver/Src/stm32f0xx_hal_rcc.c ****     }
 393:Drivers/STM32F0xx_HAL_Driver/Src/stm32f0xx_hal_rcc.c ****   }
 394:Drivers/STM32F0xx_HAL_Driver/Src/stm32f0xx_hal_rcc.c ****   /*------------------------------ LSI Configuration -------------------------*/ 
 395:Drivers/STM32F0xx_HAL_Driver/Src/stm32f0xx_hal_rcc.c ****   if(((RCC_OscInitStruct->OscillatorType) & RCC_OSCILLATORTYPE_LSI) == RCC_OSCILLATORTYPE_LSI)
 416              		.loc 1 395 0
 417 01be 2368     		ldr	r3, [r4]
 418 01c0 1B07     		lsls	r3, r3, #28
 419 01c2 4DD5     		bpl	.L32
 396:Drivers/STM32F0xx_HAL_Driver/Src/stm32f0xx_hal_rcc.c ****   {
 397:Drivers/STM32F0xx_HAL_Driver/Src/stm32f0xx_hal_rcc.c ****     /* Check the parameters */
 398:Drivers/STM32F0xx_HAL_Driver/Src/stm32f0xx_hal_rcc.c ****     assert_param(IS_RCC_LSI(RCC_OscInitStruct->LSIState));
 420              		.loc 1 398 0
 421 01c4 E369     		ldr	r3, [r4, #28]
 422 01c6 012B     		cmp	r3, #1
 423 01c8 31D8     		bhi	.L117
 424              	.L33:
 399:Drivers/STM32F0xx_HAL_Driver/Src/stm32f0xx_hal_rcc.c ****     
 400:Drivers/STM32F0xx_HAL_Driver/Src/stm32f0xx_hal_rcc.c ****     /* Check the LSI State */
 401:Drivers/STM32F0xx_HAL_Driver/Src/stm32f0xx_hal_rcc.c ****     if(RCC_OscInitStruct->LSIState != RCC_LSI_OFF)
 425              		.loc 1 401 0
 426 01ca E369     		ldr	r3, [r4, #28]
 427 01cc 002B     		cmp	r3, #0
 428 01ce 34D0     		beq	.L34
 402:Drivers/STM32F0xx_HAL_Driver/Src/stm32f0xx_hal_rcc.c ****     {
 403:Drivers/STM32F0xx_HAL_Driver/Src/stm32f0xx_hal_rcc.c ****       /* Enable the Internal Low Speed oscillator (LSI). */
 404:Drivers/STM32F0xx_HAL_Driver/Src/stm32f0xx_hal_rcc.c ****       __HAL_RCC_LSI_ENABLE();
ARM GAS  /tmp/ccVTF5Db.s 			page 16


 429              		.loc 1 404 0
 430 01d0 584A     		ldr	r2, .L136
 431 01d2 536A     		ldr	r3, [r2, #36]
 432 01d4 0121     		movs	r1, #1
 433 01d6 0B43     		orrs	r3, r1
 434 01d8 5362     		str	r3, [r2, #36]
 405:Drivers/STM32F0xx_HAL_Driver/Src/stm32f0xx_hal_rcc.c ****       
 406:Drivers/STM32F0xx_HAL_Driver/Src/stm32f0xx_hal_rcc.c ****       /* Get Start Tick */
 407:Drivers/STM32F0xx_HAL_Driver/Src/stm32f0xx_hal_rcc.c ****       tickstart = HAL_GetTick();
 435              		.loc 1 407 0
 436 01da FFF7FEFF 		bl	HAL_GetTick
 437              	.LVL23:
 438 01de 0500     		movs	r5, r0
 439              	.LVL24:
 440              	.L35:
 408:Drivers/STM32F0xx_HAL_Driver/Src/stm32f0xx_hal_rcc.c ****       
 409:Drivers/STM32F0xx_HAL_Driver/Src/stm32f0xx_hal_rcc.c ****       /* Wait till LSI is ready */  
 410:Drivers/STM32F0xx_HAL_Driver/Src/stm32f0xx_hal_rcc.c ****       while(__HAL_RCC_GET_FLAG(RCC_FLAG_LSIRDY) == RESET)
 441              		.loc 1 410 0
 442 01e0 544B     		ldr	r3, .L136
 443 01e2 5B6A     		ldr	r3, [r3, #36]
 444 01e4 9B07     		lsls	r3, r3, #30
 445 01e6 3BD4     		bmi	.L32
 411:Drivers/STM32F0xx_HAL_Driver/Src/stm32f0xx_hal_rcc.c ****       {
 412:Drivers/STM32F0xx_HAL_Driver/Src/stm32f0xx_hal_rcc.c ****         if((HAL_GetTick() - tickstart ) > LSI_TIMEOUT_VALUE)
 446              		.loc 1 412 0
 447 01e8 FFF7FEFF 		bl	HAL_GetTick
 448              	.LVL25:
 449 01ec 401B     		subs	r0, r0, r5
 450 01ee 0228     		cmp	r0, #2
 451 01f0 F6D9     		bls	.L35
 413:Drivers/STM32F0xx_HAL_Driver/Src/stm32f0xx_hal_rcc.c ****         {
 414:Drivers/STM32F0xx_HAL_Driver/Src/stm32f0xx_hal_rcc.c ****           return HAL_TIMEOUT;
 452              		.loc 1 414 0
 453 01f2 0320     		movs	r0, #3
 454 01f4 54E2     		b	.L11
 455              	.L115:
 373:Drivers/STM32F0xx_HAL_Driver/Src/stm32f0xx_hal_rcc.c ****       }
 456              		.loc 1 373 0
 457 01f6 4F49     		ldr	r1, .L136
 458 01f8 0B68     		ldr	r3, [r1]
 459 01fa F822     		movs	r2, #248
 460 01fc 9343     		bics	r3, r2
 461 01fe 2269     		ldr	r2, [r4, #16]
 462 0200 D200     		lsls	r2, r2, #3
 463 0202 1343     		orrs	r3, r2
 464 0204 0B60     		str	r3, [r1]
 465 0206 DAE7     		b	.L21
 466              	.LVL26:
 467              	.L27:
 378:Drivers/STM32F0xx_HAL_Driver/Src/stm32f0xx_hal_rcc.c ****         
 468              		.loc 1 378 0
 469 0208 4A4A     		ldr	r2, .L136
 470 020a 1368     		ldr	r3, [r2]
 471 020c 0121     		movs	r1, #1
 472 020e 8B43     		bics	r3, r1
 473 0210 1360     		str	r3, [r2]
ARM GAS  /tmp/ccVTF5Db.s 			page 17


 381:Drivers/STM32F0xx_HAL_Driver/Src/stm32f0xx_hal_rcc.c ****         
 474              		.loc 1 381 0
 475 0212 FFF7FEFF 		bl	HAL_GetTick
 476              	.LVL27:
 477 0216 0500     		movs	r5, r0
 478              	.LVL28:
 479              	.L30:
 384:Drivers/STM32F0xx_HAL_Driver/Src/stm32f0xx_hal_rcc.c ****         {
 480              		.loc 1 384 0
 481 0218 464B     		ldr	r3, .L136
 482 021a 1B68     		ldr	r3, [r3]
 483 021c 9B07     		lsls	r3, r3, #30
 484 021e CED5     		bpl	.L21
 386:Drivers/STM32F0xx_HAL_Driver/Src/stm32f0xx_hal_rcc.c ****           {
 485              		.loc 1 386 0
 486 0220 FFF7FEFF 		bl	HAL_GetTick
 487              	.LVL29:
 488 0224 401B     		subs	r0, r0, r5
 489 0226 0228     		cmp	r0, #2
 490 0228 F6D9     		bls	.L30
 388:Drivers/STM32F0xx_HAL_Driver/Src/stm32f0xx_hal_rcc.c ****           }
 491              		.loc 1 388 0
 492 022a 0320     		movs	r0, #3
 493 022c 38E2     		b	.L11
 494              	.LVL30:
 495              	.L117:
 398:Drivers/STM32F0xx_HAL_Driver/Src/stm32f0xx_hal_rcc.c ****     
 496              		.loc 1 398 0 discriminator 1
 497 022e C721     		movs	r1, #199
 498 0230 4900     		lsls	r1, r1, #1
 499 0232 4348     		ldr	r0, .L136+12
 500 0234 FFF7FEFF 		bl	assert_failed
 501              	.LVL31:
 502 0238 C7E7     		b	.L33
 503              	.L34:
 415:Drivers/STM32F0xx_HAL_Driver/Src/stm32f0xx_hal_rcc.c ****         }
 416:Drivers/STM32F0xx_HAL_Driver/Src/stm32f0xx_hal_rcc.c ****       }
 417:Drivers/STM32F0xx_HAL_Driver/Src/stm32f0xx_hal_rcc.c ****     }
 418:Drivers/STM32F0xx_HAL_Driver/Src/stm32f0xx_hal_rcc.c ****     else
 419:Drivers/STM32F0xx_HAL_Driver/Src/stm32f0xx_hal_rcc.c ****     {
 420:Drivers/STM32F0xx_HAL_Driver/Src/stm32f0xx_hal_rcc.c ****       /* Disable the Internal Low Speed oscillator (LSI). */
 421:Drivers/STM32F0xx_HAL_Driver/Src/stm32f0xx_hal_rcc.c ****       __HAL_RCC_LSI_DISABLE();
 504              		.loc 1 421 0
 505 023a 3E4A     		ldr	r2, .L136
 506 023c 536A     		ldr	r3, [r2, #36]
 507 023e 0121     		movs	r1, #1
 508 0240 8B43     		bics	r3, r1
 509 0242 5362     		str	r3, [r2, #36]
 422:Drivers/STM32F0xx_HAL_Driver/Src/stm32f0xx_hal_rcc.c ****       
 423:Drivers/STM32F0xx_HAL_Driver/Src/stm32f0xx_hal_rcc.c ****       /* Get Start Tick */
 424:Drivers/STM32F0xx_HAL_Driver/Src/stm32f0xx_hal_rcc.c ****       tickstart = HAL_GetTick();
 510              		.loc 1 424 0
 511 0244 FFF7FEFF 		bl	HAL_GetTick
 512              	.LVL32:
 513 0248 0500     		movs	r5, r0
 514              	.LVL33:
 515              	.L37:
ARM GAS  /tmp/ccVTF5Db.s 			page 18


 425:Drivers/STM32F0xx_HAL_Driver/Src/stm32f0xx_hal_rcc.c ****       
 426:Drivers/STM32F0xx_HAL_Driver/Src/stm32f0xx_hal_rcc.c ****       /* Wait till LSI is disabled */  
 427:Drivers/STM32F0xx_HAL_Driver/Src/stm32f0xx_hal_rcc.c ****       while(__HAL_RCC_GET_FLAG(RCC_FLAG_LSIRDY) != RESET)
 516              		.loc 1 427 0
 517 024a 3A4B     		ldr	r3, .L136
 518 024c 5B6A     		ldr	r3, [r3, #36]
 519 024e 9B07     		lsls	r3, r3, #30
 520 0250 06D5     		bpl	.L32
 428:Drivers/STM32F0xx_HAL_Driver/Src/stm32f0xx_hal_rcc.c ****       {
 429:Drivers/STM32F0xx_HAL_Driver/Src/stm32f0xx_hal_rcc.c ****         if((HAL_GetTick() - tickstart ) > LSI_TIMEOUT_VALUE)
 521              		.loc 1 429 0
 522 0252 FFF7FEFF 		bl	HAL_GetTick
 523              	.LVL34:
 524 0256 401B     		subs	r0, r0, r5
 525 0258 0228     		cmp	r0, #2
 526 025a F6D9     		bls	.L37
 430:Drivers/STM32F0xx_HAL_Driver/Src/stm32f0xx_hal_rcc.c ****         {
 431:Drivers/STM32F0xx_HAL_Driver/Src/stm32f0xx_hal_rcc.c ****           return HAL_TIMEOUT;
 527              		.loc 1 431 0
 528 025c 0320     		movs	r0, #3
 529 025e 1FE2     		b	.L11
 530              	.LVL35:
 531              	.L32:
 432:Drivers/STM32F0xx_HAL_Driver/Src/stm32f0xx_hal_rcc.c ****         }
 433:Drivers/STM32F0xx_HAL_Driver/Src/stm32f0xx_hal_rcc.c ****       }
 434:Drivers/STM32F0xx_HAL_Driver/Src/stm32f0xx_hal_rcc.c ****     }
 435:Drivers/STM32F0xx_HAL_Driver/Src/stm32f0xx_hal_rcc.c ****   }
 436:Drivers/STM32F0xx_HAL_Driver/Src/stm32f0xx_hal_rcc.c ****   /*------------------------------ LSE Configuration -------------------------*/ 
 437:Drivers/STM32F0xx_HAL_Driver/Src/stm32f0xx_hal_rcc.c ****   if(((RCC_OscInitStruct->OscillatorType) & RCC_OSCILLATORTYPE_LSE) == RCC_OSCILLATORTYPE_LSE)
 532              		.loc 1 437 0
 533 0260 2368     		ldr	r3, [r4]
 534 0262 5B07     		lsls	r3, r3, #29
 535 0264 00D4     		bmi	.LCB520
 536 0266 8CE0     		b	.L39	@long jump
 537              	.LCB520:
 538              	.LVL36:
 539              	.LBB2:
 438:Drivers/STM32F0xx_HAL_Driver/Src/stm32f0xx_hal_rcc.c ****   {
 439:Drivers/STM32F0xx_HAL_Driver/Src/stm32f0xx_hal_rcc.c ****     FlagStatus       pwrclkchanged = RESET;
 440:Drivers/STM32F0xx_HAL_Driver/Src/stm32f0xx_hal_rcc.c ****     
 441:Drivers/STM32F0xx_HAL_Driver/Src/stm32f0xx_hal_rcc.c ****     /* Check the parameters */
 442:Drivers/STM32F0xx_HAL_Driver/Src/stm32f0xx_hal_rcc.c ****     assert_param(IS_RCC_LSE(RCC_OscInitStruct->LSEState));
 540              		.loc 1 442 0
 541 0268 A368     		ldr	r3, [r4, #8]
 542 026a 012B     		cmp	r3, #1
 543 026c 01D9     		bls	.L40
 544              		.loc 1 442 0 is_stmt 0 discriminator 1
 545 026e 052B     		cmp	r3, #5
 546 0270 21D1     		bne	.L118
 547              	.L40:
 443:Drivers/STM32F0xx_HAL_Driver/Src/stm32f0xx_hal_rcc.c **** 
 444:Drivers/STM32F0xx_HAL_Driver/Src/stm32f0xx_hal_rcc.c ****     /* Update LSE configuration in Backup Domain control register    */
 445:Drivers/STM32F0xx_HAL_Driver/Src/stm32f0xx_hal_rcc.c ****     /* Requires to enable write access to Backup Domain of necessary */
 446:Drivers/STM32F0xx_HAL_Driver/Src/stm32f0xx_hal_rcc.c ****     if(__HAL_RCC_PWR_IS_CLK_DISABLED())
 548              		.loc 1 446 0 is_stmt 1
 549 0272 304B     		ldr	r3, .L136
 550 0274 DB69     		ldr	r3, [r3, #28]
ARM GAS  /tmp/ccVTF5Db.s 			page 19


 551 0276 DB00     		lsls	r3, r3, #3
 552 0278 23D4     		bmi	.L92
 553              	.LBB3:
 447:Drivers/STM32F0xx_HAL_Driver/Src/stm32f0xx_hal_rcc.c ****     {
 448:Drivers/STM32F0xx_HAL_Driver/Src/stm32f0xx_hal_rcc.c ****       __HAL_RCC_PWR_CLK_ENABLE();
 554              		.loc 1 448 0
 555 027a 2E4A     		ldr	r2, .L136
 556 027c D169     		ldr	r1, [r2, #28]
 557 027e 8020     		movs	r0, #128
 558 0280 4005     		lsls	r0, r0, #21
 559 0282 0143     		orrs	r1, r0
 560 0284 D161     		str	r1, [r2, #28]
 561 0286 D369     		ldr	r3, [r2, #28]
 562 0288 0340     		ands	r3, r0
 563 028a 0193     		str	r3, [sp, #4]
 564 028c 019B     		ldr	r3, [sp, #4]
 565              	.LVL37:
 566              	.LBE3:
 449:Drivers/STM32F0xx_HAL_Driver/Src/stm32f0xx_hal_rcc.c ****       pwrclkchanged = SET;
 567              		.loc 1 449 0
 568 028e 0125     		movs	r5, #1
 569              	.LVL38:
 570              	.L41:
 450:Drivers/STM32F0xx_HAL_Driver/Src/stm32f0xx_hal_rcc.c ****     }
 451:Drivers/STM32F0xx_HAL_Driver/Src/stm32f0xx_hal_rcc.c ****     
 452:Drivers/STM32F0xx_HAL_Driver/Src/stm32f0xx_hal_rcc.c ****     if(HAL_IS_BIT_CLR(PWR->CR, PWR_CR_DBP))
 571              		.loc 1 452 0
 572 0290 2C4B     		ldr	r3, .L136+16
 573 0292 1B68     		ldr	r3, [r3]
 574 0294 DB05     		lsls	r3, r3, #23
 575 0296 16D5     		bpl	.L119
 576              	.L42:
 453:Drivers/STM32F0xx_HAL_Driver/Src/stm32f0xx_hal_rcc.c ****     {
 454:Drivers/STM32F0xx_HAL_Driver/Src/stm32f0xx_hal_rcc.c ****       /* Enable write access to Backup domain */
 455:Drivers/STM32F0xx_HAL_Driver/Src/stm32f0xx_hal_rcc.c ****       SET_BIT(PWR->CR, PWR_CR_DBP);
 456:Drivers/STM32F0xx_HAL_Driver/Src/stm32f0xx_hal_rcc.c ****       
 457:Drivers/STM32F0xx_HAL_Driver/Src/stm32f0xx_hal_rcc.c ****       /* Wait for Backup domain Write protection disable */
 458:Drivers/STM32F0xx_HAL_Driver/Src/stm32f0xx_hal_rcc.c ****       tickstart = HAL_GetTick();
 459:Drivers/STM32F0xx_HAL_Driver/Src/stm32f0xx_hal_rcc.c **** 
 460:Drivers/STM32F0xx_HAL_Driver/Src/stm32f0xx_hal_rcc.c ****       while(HAL_IS_BIT_CLR(PWR->CR, PWR_CR_DBP))
 461:Drivers/STM32F0xx_HAL_Driver/Src/stm32f0xx_hal_rcc.c ****       {
 462:Drivers/STM32F0xx_HAL_Driver/Src/stm32f0xx_hal_rcc.c ****         if((HAL_GetTick() - tickstart) > RCC_DBP_TIMEOUT_VALUE)
 463:Drivers/STM32F0xx_HAL_Driver/Src/stm32f0xx_hal_rcc.c ****         {
 464:Drivers/STM32F0xx_HAL_Driver/Src/stm32f0xx_hal_rcc.c ****           return HAL_TIMEOUT;
 465:Drivers/STM32F0xx_HAL_Driver/Src/stm32f0xx_hal_rcc.c ****         }
 466:Drivers/STM32F0xx_HAL_Driver/Src/stm32f0xx_hal_rcc.c ****       }
 467:Drivers/STM32F0xx_HAL_Driver/Src/stm32f0xx_hal_rcc.c ****     }
 468:Drivers/STM32F0xx_HAL_Driver/Src/stm32f0xx_hal_rcc.c **** 
 469:Drivers/STM32F0xx_HAL_Driver/Src/stm32f0xx_hal_rcc.c ****     /* Set the new LSE configuration -----------------------------------------*/
 470:Drivers/STM32F0xx_HAL_Driver/Src/stm32f0xx_hal_rcc.c ****     __HAL_RCC_LSE_CONFIG(RCC_OscInitStruct->LSEState);
 577              		.loc 1 470 0
 578 0298 A368     		ldr	r3, [r4, #8]
 579 029a 012B     		cmp	r3, #1
 580 029c 27D0     		beq	.L120
 581              		.loc 1 470 0 is_stmt 0 discriminator 2
 582 029e 002B     		cmp	r3, #0
 583 02a0 3CD1     		bne	.L47
ARM GAS  /tmp/ccVTF5Db.s 			page 20


 584              		.loc 1 470 0 discriminator 3
 585 02a2 244B     		ldr	r3, .L136
 586 02a4 1A6A     		ldr	r2, [r3, #32]
 587 02a6 0121     		movs	r1, #1
 588 02a8 8A43     		bics	r2, r1
 589 02aa 1A62     		str	r2, [r3, #32]
 590 02ac 1A6A     		ldr	r2, [r3, #32]
 591 02ae 0331     		adds	r1, r1, #3
 592 02b0 8A43     		bics	r2, r1
 593 02b2 1A62     		str	r2, [r3, #32]
 594 02b4 20E0     		b	.L46
 595              	.LVL39:
 596              	.L118:
 442:Drivers/STM32F0xx_HAL_Driver/Src/stm32f0xx_hal_rcc.c **** 
 597              		.loc 1 442 0 is_stmt 1 discriminator 2
 598 02b6 DD21     		movs	r1, #221
 599 02b8 4900     		lsls	r1, r1, #1
 600 02ba 2148     		ldr	r0, .L136+12
 601 02bc FFF7FEFF 		bl	assert_failed
 602              	.LVL40:
 603 02c0 D7E7     		b	.L40
 604              	.L92:
 439:Drivers/STM32F0xx_HAL_Driver/Src/stm32f0xx_hal_rcc.c ****     
 605              		.loc 1 439 0
 606 02c2 0025     		movs	r5, #0
 607 02c4 E4E7     		b	.L41
 608              	.LVL41:
 609              	.L119:
 455:Drivers/STM32F0xx_HAL_Driver/Src/stm32f0xx_hal_rcc.c ****       
 610              		.loc 1 455 0
 611 02c6 1F4A     		ldr	r2, .L136+16
 612 02c8 1168     		ldr	r1, [r2]
 613 02ca 8023     		movs	r3, #128
 614 02cc 5B00     		lsls	r3, r3, #1
 615 02ce 0B43     		orrs	r3, r1
 616 02d0 1360     		str	r3, [r2]
 458:Drivers/STM32F0xx_HAL_Driver/Src/stm32f0xx_hal_rcc.c **** 
 617              		.loc 1 458 0
 618 02d2 FFF7FEFF 		bl	HAL_GetTick
 619              	.LVL42:
 620 02d6 0600     		movs	r6, r0
 621              	.LVL43:
 622              	.L43:
 460:Drivers/STM32F0xx_HAL_Driver/Src/stm32f0xx_hal_rcc.c ****       {
 623              		.loc 1 460 0
 624 02d8 1A4B     		ldr	r3, .L136+16
 625 02da 1B68     		ldr	r3, [r3]
 626 02dc DB05     		lsls	r3, r3, #23
 627 02de DBD4     		bmi	.L42
 462:Drivers/STM32F0xx_HAL_Driver/Src/stm32f0xx_hal_rcc.c ****         {
 628              		.loc 1 462 0
 629 02e0 FFF7FEFF 		bl	HAL_GetTick
 630              	.LVL44:
 631 02e4 801B     		subs	r0, r0, r6
 632 02e6 6428     		cmp	r0, #100
 633 02e8 F6D9     		bls	.L43
 464:Drivers/STM32F0xx_HAL_Driver/Src/stm32f0xx_hal_rcc.c ****         }
ARM GAS  /tmp/ccVTF5Db.s 			page 21


 634              		.loc 1 464 0
 635 02ea 0320     		movs	r0, #3
 636 02ec D8E1     		b	.L11
 637              	.LVL45:
 638              	.L120:
 639              		.loc 1 470 0 discriminator 1
 640 02ee 114A     		ldr	r2, .L136
 641 02f0 136A     		ldr	r3, [r2, #32]
 642 02f2 0121     		movs	r1, #1
 643 02f4 0B43     		orrs	r3, r1
 644 02f6 1362     		str	r3, [r2, #32]
 645              	.L46:
 471:Drivers/STM32F0xx_HAL_Driver/Src/stm32f0xx_hal_rcc.c ****     /* Check the LSE State */
 472:Drivers/STM32F0xx_HAL_Driver/Src/stm32f0xx_hal_rcc.c ****     if(RCC_OscInitStruct->LSEState != RCC_LSE_OFF)
 646              		.loc 1 472 0
 647 02f8 A368     		ldr	r3, [r4, #8]
 648 02fa 002B     		cmp	r3, #0
 649 02fc 30D0     		beq	.L49
 473:Drivers/STM32F0xx_HAL_Driver/Src/stm32f0xx_hal_rcc.c ****     {
 474:Drivers/STM32F0xx_HAL_Driver/Src/stm32f0xx_hal_rcc.c ****       /* Get Start Tick */
 475:Drivers/STM32F0xx_HAL_Driver/Src/stm32f0xx_hal_rcc.c ****       tickstart = HAL_GetTick();
 650              		.loc 1 475 0
 651 02fe FFF7FEFF 		bl	HAL_GetTick
 652              	.LVL46:
 653 0302 0600     		movs	r6, r0
 654              	.LVL47:
 655              	.L50:
 476:Drivers/STM32F0xx_HAL_Driver/Src/stm32f0xx_hal_rcc.c ****       
 477:Drivers/STM32F0xx_HAL_Driver/Src/stm32f0xx_hal_rcc.c ****       /* Wait till LSE is ready */  
 478:Drivers/STM32F0xx_HAL_Driver/Src/stm32f0xx_hal_rcc.c ****       while(__HAL_RCC_GET_FLAG(RCC_FLAG_LSERDY) == RESET)
 656              		.loc 1 478 0
 657 0304 0B4B     		ldr	r3, .L136
 658 0306 1B6A     		ldr	r3, [r3, #32]
 659 0308 9B07     		lsls	r3, r3, #30
 660 030a 38D4     		bmi	.L52
 479:Drivers/STM32F0xx_HAL_Driver/Src/stm32f0xx_hal_rcc.c ****       {
 480:Drivers/STM32F0xx_HAL_Driver/Src/stm32f0xx_hal_rcc.c ****         if((HAL_GetTick() - tickstart ) > RCC_LSE_TIMEOUT_VALUE)
 661              		.loc 1 480 0
 662 030c FFF7FEFF 		bl	HAL_GetTick
 663              	.LVL48:
 664 0310 801B     		subs	r0, r0, r6
 665 0312 0D4B     		ldr	r3, .L136+20
 666 0314 9842     		cmp	r0, r3
 667 0316 F5D9     		bls	.L50
 481:Drivers/STM32F0xx_HAL_Driver/Src/stm32f0xx_hal_rcc.c ****         {
 482:Drivers/STM32F0xx_HAL_Driver/Src/stm32f0xx_hal_rcc.c ****           return HAL_TIMEOUT;
 668              		.loc 1 482 0
 669 0318 0320     		movs	r0, #3
 670 031a C1E1     		b	.L11
 671              	.LVL49:
 672              	.L47:
 470:Drivers/STM32F0xx_HAL_Driver/Src/stm32f0xx_hal_rcc.c ****     /* Check the LSE State */
 673              		.loc 1 470 0 discriminator 4
 674 031c 052B     		cmp	r3, #5
 675 031e 15D0     		beq	.L121
 470:Drivers/STM32F0xx_HAL_Driver/Src/stm32f0xx_hal_rcc.c ****     /* Check the LSE State */
 676              		.loc 1 470 0 is_stmt 0 discriminator 6
ARM GAS  /tmp/ccVTF5Db.s 			page 22


 677 0320 044B     		ldr	r3, .L136
 678 0322 1A6A     		ldr	r2, [r3, #32]
 679 0324 0121     		movs	r1, #1
 680 0326 8A43     		bics	r2, r1
 681 0328 1A62     		str	r2, [r3, #32]
 682 032a 1A6A     		ldr	r2, [r3, #32]
 683 032c 0331     		adds	r1, r1, #3
 684 032e 8A43     		bics	r2, r1
 685 0330 1A62     		str	r2, [r3, #32]
 686 0332 E1E7     		b	.L46
 687              	.L137:
 688              		.align	2
 689              	.L136:
 690 0334 00100240 		.word	1073876992
 691 0338 FFFFFEFF 		.word	-65537
 692 033c FFFFFBFF 		.word	-262145
 693 0340 00000000 		.word	.LC3
 694 0344 00700040 		.word	1073770496
 695 0348 88130000 		.word	5000
 696              	.L121:
 470:Drivers/STM32F0xx_HAL_Driver/Src/stm32f0xx_hal_rcc.c ****     /* Check the LSE State */
 697              		.loc 1 470 0 discriminator 5
 698 034c BC4B     		ldr	r3, .L138
 699 034e 1A6A     		ldr	r2, [r3, #32]
 700 0350 0421     		movs	r1, #4
 701 0352 0A43     		orrs	r2, r1
 702 0354 1A62     		str	r2, [r3, #32]
 703 0356 1A6A     		ldr	r2, [r3, #32]
 704 0358 0339     		subs	r1, r1, #3
 705 035a 0A43     		orrs	r2, r1
 706 035c 1A62     		str	r2, [r3, #32]
 707 035e CBE7     		b	.L46
 708              	.L49:
 483:Drivers/STM32F0xx_HAL_Driver/Src/stm32f0xx_hal_rcc.c ****         }
 484:Drivers/STM32F0xx_HAL_Driver/Src/stm32f0xx_hal_rcc.c ****       }
 485:Drivers/STM32F0xx_HAL_Driver/Src/stm32f0xx_hal_rcc.c ****     }
 486:Drivers/STM32F0xx_HAL_Driver/Src/stm32f0xx_hal_rcc.c ****     else
 487:Drivers/STM32F0xx_HAL_Driver/Src/stm32f0xx_hal_rcc.c ****     {
 488:Drivers/STM32F0xx_HAL_Driver/Src/stm32f0xx_hal_rcc.c ****       /* Get Start Tick */
 489:Drivers/STM32F0xx_HAL_Driver/Src/stm32f0xx_hal_rcc.c ****       tickstart = HAL_GetTick();
 709              		.loc 1 489 0 is_stmt 1
 710 0360 FFF7FEFF 		bl	HAL_GetTick
 711              	.LVL50:
 712 0364 0600     		movs	r6, r0
 713              	.LVL51:
 714              	.L53:
 490:Drivers/STM32F0xx_HAL_Driver/Src/stm32f0xx_hal_rcc.c ****       
 491:Drivers/STM32F0xx_HAL_Driver/Src/stm32f0xx_hal_rcc.c ****       /* Wait till LSE is disabled */  
 492:Drivers/STM32F0xx_HAL_Driver/Src/stm32f0xx_hal_rcc.c ****       while(__HAL_RCC_GET_FLAG(RCC_FLAG_LSERDY) != RESET)
 715              		.loc 1 492 0
 716 0366 B64B     		ldr	r3, .L138
 717 0368 1B6A     		ldr	r3, [r3, #32]
 718 036a 9B07     		lsls	r3, r3, #30
 719 036c 07D5     		bpl	.L52
 493:Drivers/STM32F0xx_HAL_Driver/Src/stm32f0xx_hal_rcc.c ****       {
 494:Drivers/STM32F0xx_HAL_Driver/Src/stm32f0xx_hal_rcc.c ****         if((HAL_GetTick() - tickstart ) > RCC_LSE_TIMEOUT_VALUE)
 720              		.loc 1 494 0
ARM GAS  /tmp/ccVTF5Db.s 			page 23


 721 036e FFF7FEFF 		bl	HAL_GetTick
 722              	.LVL52:
 723 0372 801B     		subs	r0, r0, r6
 724 0374 B34B     		ldr	r3, .L138+4
 725 0376 9842     		cmp	r0, r3
 726 0378 F5D9     		bls	.L53
 495:Drivers/STM32F0xx_HAL_Driver/Src/stm32f0xx_hal_rcc.c ****         {
 496:Drivers/STM32F0xx_HAL_Driver/Src/stm32f0xx_hal_rcc.c ****           return HAL_TIMEOUT;
 727              		.loc 1 496 0
 728 037a 0320     		movs	r0, #3
 729 037c 90E1     		b	.L11
 730              	.L52:
 497:Drivers/STM32F0xx_HAL_Driver/Src/stm32f0xx_hal_rcc.c ****         }
 498:Drivers/STM32F0xx_HAL_Driver/Src/stm32f0xx_hal_rcc.c ****       }
 499:Drivers/STM32F0xx_HAL_Driver/Src/stm32f0xx_hal_rcc.c ****     }
 500:Drivers/STM32F0xx_HAL_Driver/Src/stm32f0xx_hal_rcc.c **** 
 501:Drivers/STM32F0xx_HAL_Driver/Src/stm32f0xx_hal_rcc.c ****     /* Require to disable power clock if necessary */
 502:Drivers/STM32F0xx_HAL_Driver/Src/stm32f0xx_hal_rcc.c ****     if(pwrclkchanged == SET)
 731              		.loc 1 502 0
 732 037e 012D     		cmp	r5, #1
 733 0380 45D0     		beq	.L122
 734              	.LVL53:
 735              	.L39:
 736              	.LBE2:
 503:Drivers/STM32F0xx_HAL_Driver/Src/stm32f0xx_hal_rcc.c ****     {
 504:Drivers/STM32F0xx_HAL_Driver/Src/stm32f0xx_hal_rcc.c ****       __HAL_RCC_PWR_CLK_DISABLE();
 505:Drivers/STM32F0xx_HAL_Driver/Src/stm32f0xx_hal_rcc.c ****     }
 506:Drivers/STM32F0xx_HAL_Driver/Src/stm32f0xx_hal_rcc.c ****   }
 507:Drivers/STM32F0xx_HAL_Driver/Src/stm32f0xx_hal_rcc.c **** 
 508:Drivers/STM32F0xx_HAL_Driver/Src/stm32f0xx_hal_rcc.c ****   /*----------------------------- HSI14 Configuration --------------------------*/
 509:Drivers/STM32F0xx_HAL_Driver/Src/stm32f0xx_hal_rcc.c ****   if(((RCC_OscInitStruct->OscillatorType) & RCC_OSCILLATORTYPE_HSI14) == RCC_OSCILLATORTYPE_HSI14)
 737              		.loc 1 509 0
 738 0382 2368     		ldr	r3, [r4]
 739 0384 DB06     		lsls	r3, r3, #27
 740 0386 18D5     		bpl	.L55
 510:Drivers/STM32F0xx_HAL_Driver/Src/stm32f0xx_hal_rcc.c ****   {
 511:Drivers/STM32F0xx_HAL_Driver/Src/stm32f0xx_hal_rcc.c ****     /* Check the parameters */
 512:Drivers/STM32F0xx_HAL_Driver/Src/stm32f0xx_hal_rcc.c ****     assert_param(IS_RCC_HSI14(RCC_OscInitStruct->HSI14State));
 741              		.loc 1 512 0
 742 0388 6369     		ldr	r3, [r4, #20]
 743 038a 012B     		cmp	r3, #1
 744 038c 01D9     		bls	.L56
 745              		.loc 1 512 0 is_stmt 0 discriminator 1
 746 038e 0533     		adds	r3, r3, #5
 747 0390 43D1     		bne	.L123
 748              	.L56:
 513:Drivers/STM32F0xx_HAL_Driver/Src/stm32f0xx_hal_rcc.c ****     assert_param(IS_RCC_CALIBRATION_VALUE(RCC_OscInitStruct->HSI14CalibrationValue));
 749              		.loc 1 513 0 is_stmt 1
 750 0392 A369     		ldr	r3, [r4, #24]
 751 0394 1F2B     		cmp	r3, #31
 752 0396 46D8     		bhi	.L124
 753              	.L57:
 514:Drivers/STM32F0xx_HAL_Driver/Src/stm32f0xx_hal_rcc.c **** 
 515:Drivers/STM32F0xx_HAL_Driver/Src/stm32f0xx_hal_rcc.c ****     /* Check the HSI14 State */
 516:Drivers/STM32F0xx_HAL_Driver/Src/stm32f0xx_hal_rcc.c ****     if(RCC_OscInitStruct->HSI14State == RCC_HSI14_ON)
 754              		.loc 1 516 0
 755 0398 6369     		ldr	r3, [r4, #20]
ARM GAS  /tmp/ccVTF5Db.s 			page 24


 756 039a 012B     		cmp	r3, #1
 757 039c 48D0     		beq	.L125
 517:Drivers/STM32F0xx_HAL_Driver/Src/stm32f0xx_hal_rcc.c ****     {
 518:Drivers/STM32F0xx_HAL_Driver/Src/stm32f0xx_hal_rcc.c ****       /* Disable ADC control of the Internal High Speed oscillator HSI14 */
 519:Drivers/STM32F0xx_HAL_Driver/Src/stm32f0xx_hal_rcc.c ****       __HAL_RCC_HSI14ADC_DISABLE();
 520:Drivers/STM32F0xx_HAL_Driver/Src/stm32f0xx_hal_rcc.c **** 
 521:Drivers/STM32F0xx_HAL_Driver/Src/stm32f0xx_hal_rcc.c ****       /* Enable the Internal High Speed oscillator (HSI). */
 522:Drivers/STM32F0xx_HAL_Driver/Src/stm32f0xx_hal_rcc.c ****       __HAL_RCC_HSI14_ENABLE();
 523:Drivers/STM32F0xx_HAL_Driver/Src/stm32f0xx_hal_rcc.c **** 
 524:Drivers/STM32F0xx_HAL_Driver/Src/stm32f0xx_hal_rcc.c ****       /* Get Start Tick */
 525:Drivers/STM32F0xx_HAL_Driver/Src/stm32f0xx_hal_rcc.c ****       tickstart = HAL_GetTick();
 526:Drivers/STM32F0xx_HAL_Driver/Src/stm32f0xx_hal_rcc.c ****       
 527:Drivers/STM32F0xx_HAL_Driver/Src/stm32f0xx_hal_rcc.c ****       /* Wait till HSI is ready */  
 528:Drivers/STM32F0xx_HAL_Driver/Src/stm32f0xx_hal_rcc.c ****       while(__HAL_RCC_GET_FLAG(RCC_FLAG_HSI14RDY) == RESET)
 529:Drivers/STM32F0xx_HAL_Driver/Src/stm32f0xx_hal_rcc.c ****       {
 530:Drivers/STM32F0xx_HAL_Driver/Src/stm32f0xx_hal_rcc.c ****         if((HAL_GetTick() - tickstart) > HSI14_TIMEOUT_VALUE)
 531:Drivers/STM32F0xx_HAL_Driver/Src/stm32f0xx_hal_rcc.c ****         {
 532:Drivers/STM32F0xx_HAL_Driver/Src/stm32f0xx_hal_rcc.c ****           return HAL_TIMEOUT;
 533:Drivers/STM32F0xx_HAL_Driver/Src/stm32f0xx_hal_rcc.c ****         }      
 534:Drivers/STM32F0xx_HAL_Driver/Src/stm32f0xx_hal_rcc.c ****       } 
 535:Drivers/STM32F0xx_HAL_Driver/Src/stm32f0xx_hal_rcc.c **** 
 536:Drivers/STM32F0xx_HAL_Driver/Src/stm32f0xx_hal_rcc.c ****       /* Adjusts the Internal High Speed oscillator 14Mhz (HSI14) calibration value. */
 537:Drivers/STM32F0xx_HAL_Driver/Src/stm32f0xx_hal_rcc.c ****       __HAL_RCC_HSI14_CALIBRATIONVALUE_ADJUST(RCC_OscInitStruct->HSI14CalibrationValue);
 538:Drivers/STM32F0xx_HAL_Driver/Src/stm32f0xx_hal_rcc.c ****     }
 539:Drivers/STM32F0xx_HAL_Driver/Src/stm32f0xx_hal_rcc.c ****     else if(RCC_OscInitStruct->HSI14State == RCC_HSI14_ADC_CONTROL)
 758              		.loc 1 539 0
 759 039e 0533     		adds	r3, r3, #5
 760 03a0 66D1     		bne	.L61
 540:Drivers/STM32F0xx_HAL_Driver/Src/stm32f0xx_hal_rcc.c ****     {
 541:Drivers/STM32F0xx_HAL_Driver/Src/stm32f0xx_hal_rcc.c ****       /* Enable ADC control of the Internal High Speed oscillator HSI14 */
 542:Drivers/STM32F0xx_HAL_Driver/Src/stm32f0xx_hal_rcc.c ****       __HAL_RCC_HSI14ADC_ENABLE();
 761              		.loc 1 542 0
 762 03a2 A74A     		ldr	r2, .L138
 763 03a4 536B     		ldr	r3, [r2, #52]
 764 03a6 0421     		movs	r1, #4
 765 03a8 8B43     		bics	r3, r1
 766 03aa 5363     		str	r3, [r2, #52]
 543:Drivers/STM32F0xx_HAL_Driver/Src/stm32f0xx_hal_rcc.c **** 
 544:Drivers/STM32F0xx_HAL_Driver/Src/stm32f0xx_hal_rcc.c ****       /* Adjusts the Internal High Speed oscillator 14Mhz (HSI14) calibration value. */
 545:Drivers/STM32F0xx_HAL_Driver/Src/stm32f0xx_hal_rcc.c ****       __HAL_RCC_HSI14_CALIBRATIONVALUE_ADJUST(RCC_OscInitStruct->HSI14CalibrationValue);
 767              		.loc 1 545 0
 768 03ac 536B     		ldr	r3, [r2, #52]
 769 03ae F431     		adds	r1, r1, #244
 770 03b0 8B43     		bics	r3, r1
 771 03b2 A169     		ldr	r1, [r4, #24]
 772 03b4 C900     		lsls	r1, r1, #3
 773 03b6 0B43     		orrs	r3, r1
 774 03b8 5363     		str	r3, [r2, #52]
 775              	.L55:
 546:Drivers/STM32F0xx_HAL_Driver/Src/stm32f0xx_hal_rcc.c ****     }
 547:Drivers/STM32F0xx_HAL_Driver/Src/stm32f0xx_hal_rcc.c ****     else
 548:Drivers/STM32F0xx_HAL_Driver/Src/stm32f0xx_hal_rcc.c ****     {
 549:Drivers/STM32F0xx_HAL_Driver/Src/stm32f0xx_hal_rcc.c ****       /* Disable ADC control of the Internal High Speed oscillator HSI14 */
 550:Drivers/STM32F0xx_HAL_Driver/Src/stm32f0xx_hal_rcc.c ****       __HAL_RCC_HSI14ADC_DISABLE();
 551:Drivers/STM32F0xx_HAL_Driver/Src/stm32f0xx_hal_rcc.c **** 
 552:Drivers/STM32F0xx_HAL_Driver/Src/stm32f0xx_hal_rcc.c ****       /* Disable the Internal High Speed oscillator (HSI). */
 553:Drivers/STM32F0xx_HAL_Driver/Src/stm32f0xx_hal_rcc.c ****       __HAL_RCC_HSI14_DISABLE();
ARM GAS  /tmp/ccVTF5Db.s 			page 25


 554:Drivers/STM32F0xx_HAL_Driver/Src/stm32f0xx_hal_rcc.c **** 
 555:Drivers/STM32F0xx_HAL_Driver/Src/stm32f0xx_hal_rcc.c ****       /* Get Start Tick */
 556:Drivers/STM32F0xx_HAL_Driver/Src/stm32f0xx_hal_rcc.c ****       tickstart = HAL_GetTick();
 557:Drivers/STM32F0xx_HAL_Driver/Src/stm32f0xx_hal_rcc.c ****       
 558:Drivers/STM32F0xx_HAL_Driver/Src/stm32f0xx_hal_rcc.c ****       /* Wait till HSI is ready */  
 559:Drivers/STM32F0xx_HAL_Driver/Src/stm32f0xx_hal_rcc.c ****       while(__HAL_RCC_GET_FLAG(RCC_FLAG_HSI14RDY) != RESET)
 560:Drivers/STM32F0xx_HAL_Driver/Src/stm32f0xx_hal_rcc.c ****       {
 561:Drivers/STM32F0xx_HAL_Driver/Src/stm32f0xx_hal_rcc.c ****         if((HAL_GetTick() - tickstart) > HSI14_TIMEOUT_VALUE)
 562:Drivers/STM32F0xx_HAL_Driver/Src/stm32f0xx_hal_rcc.c ****         {
 563:Drivers/STM32F0xx_HAL_Driver/Src/stm32f0xx_hal_rcc.c ****           return HAL_TIMEOUT;
 564:Drivers/STM32F0xx_HAL_Driver/Src/stm32f0xx_hal_rcc.c ****         }
 565:Drivers/STM32F0xx_HAL_Driver/Src/stm32f0xx_hal_rcc.c ****       }
 566:Drivers/STM32F0xx_HAL_Driver/Src/stm32f0xx_hal_rcc.c ****     }
 567:Drivers/STM32F0xx_HAL_Driver/Src/stm32f0xx_hal_rcc.c ****   }
 568:Drivers/STM32F0xx_HAL_Driver/Src/stm32f0xx_hal_rcc.c **** 
 569:Drivers/STM32F0xx_HAL_Driver/Src/stm32f0xx_hal_rcc.c **** #if defined(RCC_HSI48_SUPPORT)
 570:Drivers/STM32F0xx_HAL_Driver/Src/stm32f0xx_hal_rcc.c ****   /*----------------------------- HSI48 Configuration --------------------------*/
 571:Drivers/STM32F0xx_HAL_Driver/Src/stm32f0xx_hal_rcc.c ****   if(((RCC_OscInitStruct->OscillatorType) & RCC_OSCILLATORTYPE_HSI48) == RCC_OSCILLATORTYPE_HSI48)
 776              		.loc 1 571 0
 777 03ba 2368     		ldr	r3, [r4]
 778 03bc 9B06     		lsls	r3, r3, #26
 779 03be 00D4     		bmi	.LCB778
 780 03c0 95E0     		b	.L64	@long jump
 781              	.LCB778:
 572:Drivers/STM32F0xx_HAL_Driver/Src/stm32f0xx_hal_rcc.c ****   {
 573:Drivers/STM32F0xx_HAL_Driver/Src/stm32f0xx_hal_rcc.c ****     /* Check the parameters */
 574:Drivers/STM32F0xx_HAL_Driver/Src/stm32f0xx_hal_rcc.c ****     assert_param(IS_RCC_HSI48(RCC_OscInitStruct->HSI48State));
 782              		.loc 1 574 0
 783 03c2 236A     		ldr	r3, [r4, #32]
 784 03c4 012B     		cmp	r3, #1
 785 03c6 6AD8     		bhi	.L126
 786              	.L65:
 575:Drivers/STM32F0xx_HAL_Driver/Src/stm32f0xx_hal_rcc.c **** 
 576:Drivers/STM32F0xx_HAL_Driver/Src/stm32f0xx_hal_rcc.c ****     /* When the HSI48 is used as system clock it is not allowed to be disabled */
 577:Drivers/STM32F0xx_HAL_Driver/Src/stm32f0xx_hal_rcc.c ****     if((__HAL_RCC_GET_SYSCLK_SOURCE() == RCC_SYSCLKSOURCE_STATUS_HSI48) ||
 787              		.loc 1 577 0
 788 03c8 9D4B     		ldr	r3, .L138
 789 03ca 5A68     		ldr	r2, [r3, #4]
 790 03cc 0C23     		movs	r3, #12
 791 03ce 1340     		ands	r3, r2
 792 03d0 0C2B     		cmp	r3, #12
 793 03d2 70D0     		beq	.L66
 578:Drivers/STM32F0xx_HAL_Driver/Src/stm32f0xx_hal_rcc.c ****        ((__HAL_RCC_GET_SYSCLK_SOURCE() == RCC_SYSCLKSOURCE_STATUS_PLLCLK) && (__HAL_RCC_GET_PLL_OSC
 794              		.loc 1 578 0 discriminator 1
 795 03d4 9A4B     		ldr	r3, .L138
 796 03d6 5A68     		ldr	r2, [r3, #4]
 797 03d8 0C23     		movs	r3, #12
 798 03da 1340     		ands	r3, r2
 577:Drivers/STM32F0xx_HAL_Driver/Src/stm32f0xx_hal_rcc.c ****        ((__HAL_RCC_GET_SYSCLK_SOURCE() == RCC_SYSCLKSOURCE_STATUS_PLLCLK) && (__HAL_RCC_GET_PLL_OSC
 799              		.loc 1 577 0 discriminator 1
 800 03dc 082B     		cmp	r3, #8
 801 03de 63D0     		beq	.L127
 802              	.L67:
 579:Drivers/STM32F0xx_HAL_Driver/Src/stm32f0xx_hal_rcc.c ****     {
 580:Drivers/STM32F0xx_HAL_Driver/Src/stm32f0xx_hal_rcc.c ****       if((__HAL_RCC_GET_FLAG(RCC_FLAG_HSI48RDY) != RESET) && (RCC_OscInitStruct->HSI48State != RCC_
 581:Drivers/STM32F0xx_HAL_Driver/Src/stm32f0xx_hal_rcc.c ****       {
 582:Drivers/STM32F0xx_HAL_Driver/Src/stm32f0xx_hal_rcc.c ****         return HAL_ERROR;
ARM GAS  /tmp/ccVTF5Db.s 			page 26


 583:Drivers/STM32F0xx_HAL_Driver/Src/stm32f0xx_hal_rcc.c ****       }
 584:Drivers/STM32F0xx_HAL_Driver/Src/stm32f0xx_hal_rcc.c ****     }
 585:Drivers/STM32F0xx_HAL_Driver/Src/stm32f0xx_hal_rcc.c ****     else
 586:Drivers/STM32F0xx_HAL_Driver/Src/stm32f0xx_hal_rcc.c ****     {
 587:Drivers/STM32F0xx_HAL_Driver/Src/stm32f0xx_hal_rcc.c ****       /* Check the HSI48 State */
 588:Drivers/STM32F0xx_HAL_Driver/Src/stm32f0xx_hal_rcc.c ****       if(RCC_OscInitStruct->HSI48State != RCC_HSI48_OFF)
 803              		.loc 1 588 0
 804 03e0 236A     		ldr	r3, [r4, #32]
 805 03e2 002B     		cmp	r3, #0
 806 03e4 70D0     		beq	.L68
 589:Drivers/STM32F0xx_HAL_Driver/Src/stm32f0xx_hal_rcc.c ****       {
 590:Drivers/STM32F0xx_HAL_Driver/Src/stm32f0xx_hal_rcc.c ****         /* Enable the Internal High Speed oscillator (HSI48). */
 591:Drivers/STM32F0xx_HAL_Driver/Src/stm32f0xx_hal_rcc.c ****         __HAL_RCC_HSI48_ENABLE();
 807              		.loc 1 591 0
 808 03e6 964A     		ldr	r2, .L138
 809 03e8 516B     		ldr	r1, [r2, #52]
 810 03ea 8023     		movs	r3, #128
 811 03ec 5B02     		lsls	r3, r3, #9
 812 03ee 0B43     		orrs	r3, r1
 813 03f0 5363     		str	r3, [r2, #52]
 592:Drivers/STM32F0xx_HAL_Driver/Src/stm32f0xx_hal_rcc.c **** 
 593:Drivers/STM32F0xx_HAL_Driver/Src/stm32f0xx_hal_rcc.c ****         /* Get Start Tick */
 594:Drivers/STM32F0xx_HAL_Driver/Src/stm32f0xx_hal_rcc.c ****         tickstart = HAL_GetTick();
 814              		.loc 1 594 0
 815 03f2 FFF7FEFF 		bl	HAL_GetTick
 816              	.LVL54:
 817 03f6 0500     		movs	r5, r0
 818              	.LVL55:
 819              	.L69:
 595:Drivers/STM32F0xx_HAL_Driver/Src/stm32f0xx_hal_rcc.c ****       
 596:Drivers/STM32F0xx_HAL_Driver/Src/stm32f0xx_hal_rcc.c ****         /* Wait till HSI48 is ready */  
 597:Drivers/STM32F0xx_HAL_Driver/Src/stm32f0xx_hal_rcc.c ****         while(__HAL_RCC_GET_FLAG(RCC_FLAG_HSI48RDY) == RESET)
 820              		.loc 1 597 0
 821 03f8 914B     		ldr	r3, .L138
 822 03fa 5B6B     		ldr	r3, [r3, #52]
 823 03fc DB03     		lsls	r3, r3, #15
 824 03fe 76D4     		bmi	.L64
 598:Drivers/STM32F0xx_HAL_Driver/Src/stm32f0xx_hal_rcc.c ****         {
 599:Drivers/STM32F0xx_HAL_Driver/Src/stm32f0xx_hal_rcc.c ****           if((HAL_GetTick() - tickstart) > HSI48_TIMEOUT_VALUE)
 825              		.loc 1 599 0
 826 0400 FFF7FEFF 		bl	HAL_GetTick
 827              	.LVL56:
 828 0404 401B     		subs	r0, r0, r5
 829 0406 0228     		cmp	r0, #2
 830 0408 F6D9     		bls	.L69
 600:Drivers/STM32F0xx_HAL_Driver/Src/stm32f0xx_hal_rcc.c ****           {
 601:Drivers/STM32F0xx_HAL_Driver/Src/stm32f0xx_hal_rcc.c ****             return HAL_TIMEOUT;
 831              		.loc 1 601 0
 832 040a 0320     		movs	r0, #3
 833 040c 48E1     		b	.L11
 834              	.LVL57:
 835              	.L122:
 836              	.LBB4:
 504:Drivers/STM32F0xx_HAL_Driver/Src/stm32f0xx_hal_rcc.c ****     }
 837              		.loc 1 504 0
 838 040e 8C4A     		ldr	r2, .L138
 839 0410 D369     		ldr	r3, [r2, #28]
ARM GAS  /tmp/ccVTF5Db.s 			page 27


 840 0412 8D49     		ldr	r1, .L138+8
 841 0414 0B40     		ands	r3, r1
 842 0416 D361     		str	r3, [r2, #28]
 843 0418 B3E7     		b	.L39
 844              	.LVL58:
 845              	.L123:
 846              	.LBE4:
 512:Drivers/STM32F0xx_HAL_Driver/Src/stm32f0xx_hal_rcc.c ****     assert_param(IS_RCC_CALIBRATION_VALUE(RCC_OscInitStruct->HSI14CalibrationValue));
 847              		.loc 1 512 0 discriminator 2
 848 041a 8021     		movs	r1, #128
 849 041c 8900     		lsls	r1, r1, #2
 850 041e 8B48     		ldr	r0, .L138+12
 851 0420 FFF7FEFF 		bl	assert_failed
 852              	.LVL59:
 853 0424 B5E7     		b	.L56
 854              	.L124:
 513:Drivers/STM32F0xx_HAL_Driver/Src/stm32f0xx_hal_rcc.c **** 
 855              		.loc 1 513 0 discriminator 1
 856 0426 8A49     		ldr	r1, .L138+16
 857 0428 8848     		ldr	r0, .L138+12
 858 042a FFF7FEFF 		bl	assert_failed
 859              	.LVL60:
 860 042e B3E7     		b	.L57
 861              	.L125:
 519:Drivers/STM32F0xx_HAL_Driver/Src/stm32f0xx_hal_rcc.c **** 
 862              		.loc 1 519 0
 863 0430 834B     		ldr	r3, .L138
 864 0432 5A6B     		ldr	r2, [r3, #52]
 865 0434 0421     		movs	r1, #4
 866 0436 0A43     		orrs	r2, r1
 867 0438 5A63     		str	r2, [r3, #52]
 522:Drivers/STM32F0xx_HAL_Driver/Src/stm32f0xx_hal_rcc.c **** 
 868              		.loc 1 522 0
 869 043a 5A6B     		ldr	r2, [r3, #52]
 870 043c 0339     		subs	r1, r1, #3
 871 043e 0A43     		orrs	r2, r1
 872 0440 5A63     		str	r2, [r3, #52]
 525:Drivers/STM32F0xx_HAL_Driver/Src/stm32f0xx_hal_rcc.c ****       
 873              		.loc 1 525 0
 874 0442 FFF7FEFF 		bl	HAL_GetTick
 875              	.LVL61:
 876 0446 0500     		movs	r5, r0
 877              	.LVL62:
 878              	.L59:
 528:Drivers/STM32F0xx_HAL_Driver/Src/stm32f0xx_hal_rcc.c ****       {
 879              		.loc 1 528 0
 880 0448 7D4B     		ldr	r3, .L138
 881 044a 5B6B     		ldr	r3, [r3, #52]
 882 044c 9B07     		lsls	r3, r3, #30
 883 044e 06D4     		bmi	.L128
 530:Drivers/STM32F0xx_HAL_Driver/Src/stm32f0xx_hal_rcc.c ****         {
 884              		.loc 1 530 0
 885 0450 FFF7FEFF 		bl	HAL_GetTick
 886              	.LVL63:
 887 0454 401B     		subs	r0, r0, r5
 888 0456 0228     		cmp	r0, #2
 889 0458 F6D9     		bls	.L59
ARM GAS  /tmp/ccVTF5Db.s 			page 28


 532:Drivers/STM32F0xx_HAL_Driver/Src/stm32f0xx_hal_rcc.c ****         }      
 890              		.loc 1 532 0
 891 045a 0320     		movs	r0, #3
 892 045c 20E1     		b	.L11
 893              	.L128:
 537:Drivers/STM32F0xx_HAL_Driver/Src/stm32f0xx_hal_rcc.c ****     }
 894              		.loc 1 537 0
 895 045e 7849     		ldr	r1, .L138
 896 0460 4B6B     		ldr	r3, [r1, #52]
 897 0462 F822     		movs	r2, #248
 898 0464 9343     		bics	r3, r2
 899 0466 A269     		ldr	r2, [r4, #24]
 900 0468 D200     		lsls	r2, r2, #3
 901 046a 1343     		orrs	r3, r2
 902 046c 4B63     		str	r3, [r1, #52]
 903 046e A4E7     		b	.L55
 904              	.LVL64:
 905              	.L61:
 550:Drivers/STM32F0xx_HAL_Driver/Src/stm32f0xx_hal_rcc.c **** 
 906              		.loc 1 550 0
 907 0470 734B     		ldr	r3, .L138
 908 0472 5A6B     		ldr	r2, [r3, #52]
 909 0474 0421     		movs	r1, #4
 910 0476 0A43     		orrs	r2, r1
 911 0478 5A63     		str	r2, [r3, #52]
 553:Drivers/STM32F0xx_HAL_Driver/Src/stm32f0xx_hal_rcc.c **** 
 912              		.loc 1 553 0
 913 047a 5A6B     		ldr	r2, [r3, #52]
 914 047c 0339     		subs	r1, r1, #3
 915 047e 8A43     		bics	r2, r1
 916 0480 5A63     		str	r2, [r3, #52]
 556:Drivers/STM32F0xx_HAL_Driver/Src/stm32f0xx_hal_rcc.c ****       
 917              		.loc 1 556 0
 918 0482 FFF7FEFF 		bl	HAL_GetTick
 919              	.LVL65:
 920 0486 0500     		movs	r5, r0
 921              	.LVL66:
 922              	.L62:
 559:Drivers/STM32F0xx_HAL_Driver/Src/stm32f0xx_hal_rcc.c ****       {
 923              		.loc 1 559 0
 924 0488 6D4B     		ldr	r3, .L138
 925 048a 5B6B     		ldr	r3, [r3, #52]
 926 048c 9B07     		lsls	r3, r3, #30
 927 048e 94D5     		bpl	.L55
 561:Drivers/STM32F0xx_HAL_Driver/Src/stm32f0xx_hal_rcc.c ****         {
 928              		.loc 1 561 0
 929 0490 FFF7FEFF 		bl	HAL_GetTick
 930              	.LVL67:
 931 0494 401B     		subs	r0, r0, r5
 932 0496 0228     		cmp	r0, #2
 933 0498 F6D9     		bls	.L62
 563:Drivers/STM32F0xx_HAL_Driver/Src/stm32f0xx_hal_rcc.c ****         }
 934              		.loc 1 563 0
 935 049a 0320     		movs	r0, #3
 936 049c 00E1     		b	.L11
 937              	.LVL68:
 938              	.L126:
ARM GAS  /tmp/ccVTF5Db.s 			page 29


 574:Drivers/STM32F0xx_HAL_Driver/Src/stm32f0xx_hal_rcc.c **** 
 939              		.loc 1 574 0 discriminator 1
 940 049e 6D49     		ldr	r1, .L138+20
 941 04a0 6A48     		ldr	r0, .L138+12
 942 04a2 FFF7FEFF 		bl	assert_failed
 943              	.LVL69:
 944 04a6 8FE7     		b	.L65
 945              	.L127:
 578:Drivers/STM32F0xx_HAL_Driver/Src/stm32f0xx_hal_rcc.c ****     {
 946              		.loc 1 578 0
 947 04a8 654B     		ldr	r3, .L138
 948 04aa 5B68     		ldr	r3, [r3, #4]
 949 04ac C022     		movs	r2, #192
 950 04ae 5202     		lsls	r2, r2, #9
 951 04b0 1340     		ands	r3, r2
 952 04b2 9342     		cmp	r3, r2
 953 04b4 94D1     		bne	.L67
 954              	.L66:
 580:Drivers/STM32F0xx_HAL_Driver/Src/stm32f0xx_hal_rcc.c ****       {
 955              		.loc 1 580 0
 956 04b6 624B     		ldr	r3, .L138
 957 04b8 5B6B     		ldr	r3, [r3, #52]
 958 04ba DB03     		lsls	r3, r3, #15
 959 04bc 17D5     		bpl	.L64
 580:Drivers/STM32F0xx_HAL_Driver/Src/stm32f0xx_hal_rcc.c ****       {
 960              		.loc 1 580 0 is_stmt 0 discriminator 1
 961 04be 236A     		ldr	r3, [r4, #32]
 962 04c0 012B     		cmp	r3, #1
 963 04c2 14D0     		beq	.L64
 582:Drivers/STM32F0xx_HAL_Driver/Src/stm32f0xx_hal_rcc.c ****       }
 964              		.loc 1 582 0 is_stmt 1
 965 04c4 0120     		movs	r0, #1
 966 04c6 EBE0     		b	.L11
 967              	.L68:
 602:Drivers/STM32F0xx_HAL_Driver/Src/stm32f0xx_hal_rcc.c ****           }
 603:Drivers/STM32F0xx_HAL_Driver/Src/stm32f0xx_hal_rcc.c ****         } 
 604:Drivers/STM32F0xx_HAL_Driver/Src/stm32f0xx_hal_rcc.c ****       }
 605:Drivers/STM32F0xx_HAL_Driver/Src/stm32f0xx_hal_rcc.c ****       else
 606:Drivers/STM32F0xx_HAL_Driver/Src/stm32f0xx_hal_rcc.c ****       {
 607:Drivers/STM32F0xx_HAL_Driver/Src/stm32f0xx_hal_rcc.c ****         /* Disable the Internal High Speed oscillator (HSI48). */
 608:Drivers/STM32F0xx_HAL_Driver/Src/stm32f0xx_hal_rcc.c ****         __HAL_RCC_HSI48_DISABLE();
 968              		.loc 1 608 0
 969 04c8 5D4A     		ldr	r2, .L138
 970 04ca 536B     		ldr	r3, [r2, #52]
 971 04cc 6249     		ldr	r1, .L138+24
 972 04ce 0B40     		ands	r3, r1
 973 04d0 5363     		str	r3, [r2, #52]
 609:Drivers/STM32F0xx_HAL_Driver/Src/stm32f0xx_hal_rcc.c **** 
 610:Drivers/STM32F0xx_HAL_Driver/Src/stm32f0xx_hal_rcc.c ****         /* Get Start Tick */
 611:Drivers/STM32F0xx_HAL_Driver/Src/stm32f0xx_hal_rcc.c ****         tickstart = HAL_GetTick();
 974              		.loc 1 611 0
 975 04d2 FFF7FEFF 		bl	HAL_GetTick
 976              	.LVL70:
 977 04d6 0500     		movs	r5, r0
 978              	.LVL71:
 979              	.L71:
 612:Drivers/STM32F0xx_HAL_Driver/Src/stm32f0xx_hal_rcc.c ****       
ARM GAS  /tmp/ccVTF5Db.s 			page 30


 613:Drivers/STM32F0xx_HAL_Driver/Src/stm32f0xx_hal_rcc.c ****         /* Wait till HSI48 is ready */  
 614:Drivers/STM32F0xx_HAL_Driver/Src/stm32f0xx_hal_rcc.c ****         while(__HAL_RCC_GET_FLAG(RCC_FLAG_HSI48RDY) != RESET)
 980              		.loc 1 614 0
 981 04d8 594B     		ldr	r3, .L138
 982 04da 5B6B     		ldr	r3, [r3, #52]
 983 04dc DB03     		lsls	r3, r3, #15
 984 04de 06D5     		bpl	.L64
 615:Drivers/STM32F0xx_HAL_Driver/Src/stm32f0xx_hal_rcc.c ****         {
 616:Drivers/STM32F0xx_HAL_Driver/Src/stm32f0xx_hal_rcc.c ****           if((HAL_GetTick() - tickstart) > HSI48_TIMEOUT_VALUE)
 985              		.loc 1 616 0
 986 04e0 FFF7FEFF 		bl	HAL_GetTick
 987              	.LVL72:
 988 04e4 401B     		subs	r0, r0, r5
 989 04e6 0228     		cmp	r0, #2
 990 04e8 F6D9     		bls	.L71
 617:Drivers/STM32F0xx_HAL_Driver/Src/stm32f0xx_hal_rcc.c ****           {
 618:Drivers/STM32F0xx_HAL_Driver/Src/stm32f0xx_hal_rcc.c ****             return HAL_TIMEOUT;
 991              		.loc 1 618 0
 992 04ea 0320     		movs	r0, #3
 993 04ec D8E0     		b	.L11
 994              	.LVL73:
 995              	.L64:
 619:Drivers/STM32F0xx_HAL_Driver/Src/stm32f0xx_hal_rcc.c ****           }
 620:Drivers/STM32F0xx_HAL_Driver/Src/stm32f0xx_hal_rcc.c ****         }
 621:Drivers/STM32F0xx_HAL_Driver/Src/stm32f0xx_hal_rcc.c ****       }
 622:Drivers/STM32F0xx_HAL_Driver/Src/stm32f0xx_hal_rcc.c ****     }
 623:Drivers/STM32F0xx_HAL_Driver/Src/stm32f0xx_hal_rcc.c ****   }
 624:Drivers/STM32F0xx_HAL_Driver/Src/stm32f0xx_hal_rcc.c **** #endif /* RCC_HSI48_SUPPORT */
 625:Drivers/STM32F0xx_HAL_Driver/Src/stm32f0xx_hal_rcc.c ****        
 626:Drivers/STM32F0xx_HAL_Driver/Src/stm32f0xx_hal_rcc.c ****   /*-------------------------------- PLL Configuration -----------------------*/
 627:Drivers/STM32F0xx_HAL_Driver/Src/stm32f0xx_hal_rcc.c ****   /* Check the parameters */
 628:Drivers/STM32F0xx_HAL_Driver/Src/stm32f0xx_hal_rcc.c ****   assert_param(IS_RCC_PLL(RCC_OscInitStruct->PLL.PLLState));
 996              		.loc 1 628 0
 997 04ee 636A     		ldr	r3, [r4, #36]
 998 04f0 022B     		cmp	r3, #2
 999 04f2 6BD8     		bhi	.L129
 1000              	.L73:
 629:Drivers/STM32F0xx_HAL_Driver/Src/stm32f0xx_hal_rcc.c ****   if ((RCC_OscInitStruct->PLL.PLLState) != RCC_PLL_NONE)
 1001              		.loc 1 629 0
 1002 04f4 636A     		ldr	r3, [r4, #36]
 1003 04f6 002B     		cmp	r3, #0
 1004 04f8 00D1     		bne	.LCB1017
 1005 04fa D0E0     		b	.L101	@long jump
 1006              	.LCB1017:
 630:Drivers/STM32F0xx_HAL_Driver/Src/stm32f0xx_hal_rcc.c ****   {
 631:Drivers/STM32F0xx_HAL_Driver/Src/stm32f0xx_hal_rcc.c ****     /* Check if the PLL is used as system clock or not */
 632:Drivers/STM32F0xx_HAL_Driver/Src/stm32f0xx_hal_rcc.c ****     if(__HAL_RCC_GET_SYSCLK_SOURCE() != RCC_SYSCLKSOURCE_STATUS_PLLCLK)
 1007              		.loc 1 632 0
 1008 04fc 504A     		ldr	r2, .L138
 1009 04fe 5168     		ldr	r1, [r2, #4]
 1010 0500 0C22     		movs	r2, #12
 1011 0502 0A40     		ands	r2, r1
 1012 0504 082A     		cmp	r2, #8
 1013 0506 00D1     		bne	.LCB1023
 1014 0508 CCE0     		b	.L102	@long jump
 1015              	.LCB1023:
 633:Drivers/STM32F0xx_HAL_Driver/Src/stm32f0xx_hal_rcc.c ****     { 
ARM GAS  /tmp/ccVTF5Db.s 			page 31


 634:Drivers/STM32F0xx_HAL_Driver/Src/stm32f0xx_hal_rcc.c ****       if((RCC_OscInitStruct->PLL.PLLState) == RCC_PLL_ON)
 1016              		.loc 1 634 0
 1017 050a 022B     		cmp	r3, #2
 1018 050c 00D0     		beq	.LCB1025
 1019 050e AFE0     		b	.L74	@long jump
 1020              	.LCB1025:
 635:Drivers/STM32F0xx_HAL_Driver/Src/stm32f0xx_hal_rcc.c ****       {
 636:Drivers/STM32F0xx_HAL_Driver/Src/stm32f0xx_hal_rcc.c ****         /* Check the parameters */
 637:Drivers/STM32F0xx_HAL_Driver/Src/stm32f0xx_hal_rcc.c ****         assert_param(IS_RCC_PLLSOURCE(RCC_OscInitStruct->PLL.PLLSource));
 1021              		.loc 1 637 0
 1022 0510 A36A     		ldr	r3, [r4, #40]
 1023 0512 8022     		movs	r2, #128
 1024 0514 1202     		lsls	r2, r2, #8
 1025 0516 9342     		cmp	r3, r2
 1026 0518 07D0     		beq	.L75
 1027              		.loc 1 637 0 is_stmt 0 discriminator 1
 1028 051a C022     		movs	r2, #192
 1029 051c 5202     		lsls	r2, r2, #9
 1030 051e 9342     		cmp	r3, r2
 1031 0520 03D0     		beq	.L75
 1032              		.loc 1 637 0 discriminator 2
 1033 0522 8022     		movs	r2, #128
 1034 0524 5202     		lsls	r2, r2, #9
 1035 0526 9342     		cmp	r3, r2
 1036 0528 56D1     		bne	.L130
 1037              	.L75:
 638:Drivers/STM32F0xx_HAL_Driver/Src/stm32f0xx_hal_rcc.c ****         assert_param(IS_RCC_PLL_MUL(RCC_OscInitStruct->PLL.PLLMUL));
 1038              		.loc 1 638 0 is_stmt 1
 1039 052a E36A     		ldr	r3, [r4, #44]
 1040 052c 002B     		cmp	r3, #0
 1041 052e 37D0     		beq	.L76
 1042              		.loc 1 638 0 is_stmt 0 discriminator 1
 1043 0530 8022     		movs	r2, #128
 1044 0532 D202     		lsls	r2, r2, #11
 1045 0534 9342     		cmp	r3, r2
 1046 0536 33D0     		beq	.L76
 1047              		.loc 1 638 0 discriminator 2
 1048 0538 8022     		movs	r2, #128
 1049 053a 1203     		lsls	r2, r2, #12
 1050 053c 9342     		cmp	r3, r2
 1051 053e 2FD0     		beq	.L76
 1052              		.loc 1 638 0 discriminator 3
 1053 0540 C022     		movs	r2, #192
 1054 0542 1203     		lsls	r2, r2, #12
 1055 0544 9342     		cmp	r3, r2
 1056 0546 2BD0     		beq	.L76
 1057              		.loc 1 638 0 discriminator 4
 1058 0548 8022     		movs	r2, #128
 1059 054a 5203     		lsls	r2, r2, #13
 1060 054c 9342     		cmp	r3, r2
 1061 054e 27D0     		beq	.L76
 1062              		.loc 1 638 0 discriminator 5
 1063 0550 A022     		movs	r2, #160
 1064 0552 5203     		lsls	r2, r2, #13
 1065 0554 9342     		cmp	r3, r2
 1066 0556 23D0     		beq	.L76
 1067              		.loc 1 638 0 discriminator 6
ARM GAS  /tmp/ccVTF5Db.s 			page 32


 1068 0558 C022     		movs	r2, #192
 1069 055a 5203     		lsls	r2, r2, #13
 1070 055c 9342     		cmp	r3, r2
 1071 055e 1FD0     		beq	.L76
 1072              		.loc 1 638 0 discriminator 7
 1073 0560 E022     		movs	r2, #224
 1074 0562 5203     		lsls	r2, r2, #13
 1075 0564 9342     		cmp	r3, r2
 1076 0566 1BD0     		beq	.L76
 1077              		.loc 1 638 0 discriminator 8
 1078 0568 8022     		movs	r2, #128
 1079 056a 9203     		lsls	r2, r2, #14
 1080 056c 9342     		cmp	r3, r2
 1081 056e 17D0     		beq	.L76
 1082              		.loc 1 638 0 discriminator 9
 1083 0570 9022     		movs	r2, #144
 1084 0572 9203     		lsls	r2, r2, #14
 1085 0574 9342     		cmp	r3, r2
 1086 0576 13D0     		beq	.L76
 1087              		.loc 1 638 0 discriminator 10
 1088 0578 A022     		movs	r2, #160
 1089 057a 9203     		lsls	r2, r2, #14
 1090 057c 9342     		cmp	r3, r2
 1091 057e 0FD0     		beq	.L76
 1092              		.loc 1 638 0 discriminator 11
 1093 0580 B022     		movs	r2, #176
 1094 0582 9203     		lsls	r2, r2, #14
 1095 0584 9342     		cmp	r3, r2
 1096 0586 0BD0     		beq	.L76
 1097              		.loc 1 638 0 discriminator 12
 1098 0588 C022     		movs	r2, #192
 1099 058a 9203     		lsls	r2, r2, #14
 1100 058c 9342     		cmp	r3, r2
 1101 058e 07D0     		beq	.L76
 1102              		.loc 1 638 0 discriminator 13
 1103 0590 D022     		movs	r2, #208
 1104 0592 9203     		lsls	r2, r2, #14
 1105 0594 9342     		cmp	r3, r2
 1106 0596 03D0     		beq	.L76
 1107              		.loc 1 638 0 discriminator 14
 1108 0598 E022     		movs	r2, #224
 1109 059a 9203     		lsls	r2, r2, #14
 1110 059c 9342     		cmp	r3, r2
 1111 059e 20D1     		bne	.L131
 1112              	.L76:
 639:Drivers/STM32F0xx_HAL_Driver/Src/stm32f0xx_hal_rcc.c ****         assert_param(IS_RCC_PREDIV(RCC_OscInitStruct->PLL.PREDIV));
 1113              		.loc 1 639 0 is_stmt 1
 1114 05a0 236B     		ldr	r3, [r4, #48]
 1115 05a2 0F2B     		cmp	r3, #15
 1116 05a4 22D8     		bhi	.L132
 1117              	.L77:
 640:Drivers/STM32F0xx_HAL_Driver/Src/stm32f0xx_hal_rcc.c ****   
 641:Drivers/STM32F0xx_HAL_Driver/Src/stm32f0xx_hal_rcc.c ****         /* Disable the main PLL. */
 642:Drivers/STM32F0xx_HAL_Driver/Src/stm32f0xx_hal_rcc.c ****         __HAL_RCC_PLL_DISABLE();
 1118              		.loc 1 642 0
 1119 05a6 264A     		ldr	r2, .L138
 1120 05a8 1368     		ldr	r3, [r2]
ARM GAS  /tmp/ccVTF5Db.s 			page 33


 1121 05aa 2C49     		ldr	r1, .L138+28
 1122 05ac 0B40     		ands	r3, r1
 1123 05ae 1360     		str	r3, [r2]
 643:Drivers/STM32F0xx_HAL_Driver/Src/stm32f0xx_hal_rcc.c ****         
 644:Drivers/STM32F0xx_HAL_Driver/Src/stm32f0xx_hal_rcc.c ****         /* Get Start Tick */
 645:Drivers/STM32F0xx_HAL_Driver/Src/stm32f0xx_hal_rcc.c ****         tickstart = HAL_GetTick();
 1124              		.loc 1 645 0
 1125 05b0 FFF7FEFF 		bl	HAL_GetTick
 1126              	.LVL74:
 1127 05b4 0500     		movs	r5, r0
 1128              	.LVL75:
 1129              	.L78:
 646:Drivers/STM32F0xx_HAL_Driver/Src/stm32f0xx_hal_rcc.c ****         
 647:Drivers/STM32F0xx_HAL_Driver/Src/stm32f0xx_hal_rcc.c ****         /* Wait till PLL is disabled */
 648:Drivers/STM32F0xx_HAL_Driver/Src/stm32f0xx_hal_rcc.c ****         while(__HAL_RCC_GET_FLAG(RCC_FLAG_PLLRDY)  != RESET)
 1130              		.loc 1 648 0
 1131 05b6 224B     		ldr	r3, .L138
 1132 05b8 1B68     		ldr	r3, [r3]
 1133 05ba 9B01     		lsls	r3, r3, #6
 1134 05bc 1BD5     		bpl	.L133
 649:Drivers/STM32F0xx_HAL_Driver/Src/stm32f0xx_hal_rcc.c ****         {
 650:Drivers/STM32F0xx_HAL_Driver/Src/stm32f0xx_hal_rcc.c ****           if((HAL_GetTick() - tickstart ) > PLL_TIMEOUT_VALUE)
 1135              		.loc 1 650 0
 1136 05be FFF7FEFF 		bl	HAL_GetTick
 1137              	.LVL76:
 1138 05c2 401B     		subs	r0, r0, r5
 1139 05c4 0228     		cmp	r0, #2
 1140 05c6 F6D9     		bls	.L78
 651:Drivers/STM32F0xx_HAL_Driver/Src/stm32f0xx_hal_rcc.c ****           {
 652:Drivers/STM32F0xx_HAL_Driver/Src/stm32f0xx_hal_rcc.c ****             return HAL_TIMEOUT;
 1141              		.loc 1 652 0
 1142 05c8 0320     		movs	r0, #3
 1143 05ca 69E0     		b	.L11
 1144              	.LVL77:
 1145              	.L129:
 628:Drivers/STM32F0xx_HAL_Driver/Src/stm32f0xx_hal_rcc.c ****   if ((RCC_OscInitStruct->PLL.PLLState) != RCC_PLL_NONE)
 1146              		.loc 1 628 0 discriminator 1
 1147 05cc 9D21     		movs	r1, #157
 1148 05ce 8900     		lsls	r1, r1, #2
 1149 05d0 1E48     		ldr	r0, .L138+12
 1150 05d2 FFF7FEFF 		bl	assert_failed
 1151              	.LVL78:
 1152 05d6 8DE7     		b	.L73
 1153              	.L130:
 637:Drivers/STM32F0xx_HAL_Driver/Src/stm32f0xx_hal_rcc.c ****         assert_param(IS_RCC_PLL_MUL(RCC_OscInitStruct->PLL.PLLMUL));
 1154              		.loc 1 637 0 discriminator 3
 1155 05d8 2149     		ldr	r1, .L138+32
 1156 05da 1C48     		ldr	r0, .L138+12
 1157 05dc FFF7FEFF 		bl	assert_failed
 1158              	.LVL79:
 1159 05e0 A3E7     		b	.L75
 1160              	.L131:
 638:Drivers/STM32F0xx_HAL_Driver/Src/stm32f0xx_hal_rcc.c ****         assert_param(IS_RCC_PREDIV(RCC_OscInitStruct->PLL.PREDIV));
 1161              		.loc 1 638 0 discriminator 15
 1162 05e2 2049     		ldr	r1, .L138+36
 1163 05e4 1948     		ldr	r0, .L138+12
 1164 05e6 FFF7FEFF 		bl	assert_failed
ARM GAS  /tmp/ccVTF5Db.s 			page 34


 1165              	.LVL80:
 1166 05ea D9E7     		b	.L76
 1167              	.L132:
 639:Drivers/STM32F0xx_HAL_Driver/Src/stm32f0xx_hal_rcc.c ****   
 1168              		.loc 1 639 0 discriminator 1
 1169 05ec 1E49     		ldr	r1, .L138+40
 1170 05ee 1748     		ldr	r0, .L138+12
 1171 05f0 FFF7FEFF 		bl	assert_failed
 1172              	.LVL81:
 1173 05f4 D7E7     		b	.L77
 1174              	.LVL82:
 1175              	.L133:
 653:Drivers/STM32F0xx_HAL_Driver/Src/stm32f0xx_hal_rcc.c ****           }
 654:Drivers/STM32F0xx_HAL_Driver/Src/stm32f0xx_hal_rcc.c ****         }
 655:Drivers/STM32F0xx_HAL_Driver/Src/stm32f0xx_hal_rcc.c **** 
 656:Drivers/STM32F0xx_HAL_Driver/Src/stm32f0xx_hal_rcc.c ****         /* Configure the main PLL clock source, predivider and multiplication factor. */
 657:Drivers/STM32F0xx_HAL_Driver/Src/stm32f0xx_hal_rcc.c ****         __HAL_RCC_PLL_CONFIG(RCC_OscInitStruct->PLL.PLLSource,
 1176              		.loc 1 657 0
 1177 05f6 124B     		ldr	r3, .L138
 1178 05f8 DA6A     		ldr	r2, [r3, #44]
 1179 05fa 0F21     		movs	r1, #15
 1180 05fc 8A43     		bics	r2, r1
 1181 05fe 216B     		ldr	r1, [r4, #48]
 1182 0600 0A43     		orrs	r2, r1
 1183 0602 DA62     		str	r2, [r3, #44]
 1184 0604 5A68     		ldr	r2, [r3, #4]
 1185 0606 1949     		ldr	r1, .L138+44
 1186 0608 0A40     		ands	r2, r1
 1187 060a E16A     		ldr	r1, [r4, #44]
 1188 060c A06A     		ldr	r0, [r4, #40]
 1189 060e 0143     		orrs	r1, r0
 1190 0610 0A43     		orrs	r2, r1
 1191 0612 5A60     		str	r2, [r3, #4]
 658:Drivers/STM32F0xx_HAL_Driver/Src/stm32f0xx_hal_rcc.c ****                              RCC_OscInitStruct->PLL.PREDIV,
 659:Drivers/STM32F0xx_HAL_Driver/Src/stm32f0xx_hal_rcc.c ****                              RCC_OscInitStruct->PLL.PLLMUL);
 660:Drivers/STM32F0xx_HAL_Driver/Src/stm32f0xx_hal_rcc.c ****         /* Enable the main PLL. */
 661:Drivers/STM32F0xx_HAL_Driver/Src/stm32f0xx_hal_rcc.c ****         __HAL_RCC_PLL_ENABLE();
 1192              		.loc 1 661 0
 1193 0614 1968     		ldr	r1, [r3]
 1194 0616 8022     		movs	r2, #128
 1195 0618 5204     		lsls	r2, r2, #17
 1196 061a 0A43     		orrs	r2, r1
 1197 061c 1A60     		str	r2, [r3]
 662:Drivers/STM32F0xx_HAL_Driver/Src/stm32f0xx_hal_rcc.c ****         
 663:Drivers/STM32F0xx_HAL_Driver/Src/stm32f0xx_hal_rcc.c ****         /* Get Start Tick */
 664:Drivers/STM32F0xx_HAL_Driver/Src/stm32f0xx_hal_rcc.c ****         tickstart = HAL_GetTick();
 1198              		.loc 1 664 0
 1199 061e FFF7FEFF 		bl	HAL_GetTick
 1200              	.LVL83:
 1201 0622 0400     		movs	r4, r0
 1202              	.LVL84:
 1203              	.L80:
 665:Drivers/STM32F0xx_HAL_Driver/Src/stm32f0xx_hal_rcc.c ****         
 666:Drivers/STM32F0xx_HAL_Driver/Src/stm32f0xx_hal_rcc.c ****         /* Wait till PLL is ready */
 667:Drivers/STM32F0xx_HAL_Driver/Src/stm32f0xx_hal_rcc.c ****         while(__HAL_RCC_GET_FLAG(RCC_FLAG_PLLRDY)  == RESET)
 1204              		.loc 1 667 0
 1205 0624 064B     		ldr	r3, .L138
ARM GAS  /tmp/ccVTF5Db.s 			page 35


 1206 0626 1B68     		ldr	r3, [r3]
 1207 0628 9B01     		lsls	r3, r3, #6
 1208 062a 06D4     		bmi	.L134
 668:Drivers/STM32F0xx_HAL_Driver/Src/stm32f0xx_hal_rcc.c ****         {
 669:Drivers/STM32F0xx_HAL_Driver/Src/stm32f0xx_hal_rcc.c ****           if((HAL_GetTick() - tickstart ) > PLL_TIMEOUT_VALUE)
 1209              		.loc 1 669 0
 1210 062c FFF7FEFF 		bl	HAL_GetTick
 1211              	.LVL85:
 1212 0630 001B     		subs	r0, r0, r4
 1213 0632 0228     		cmp	r0, #2
 1214 0634 F6D9     		bls	.L80
 670:Drivers/STM32F0xx_HAL_Driver/Src/stm32f0xx_hal_rcc.c ****           {
 671:Drivers/STM32F0xx_HAL_Driver/Src/stm32f0xx_hal_rcc.c ****             return HAL_TIMEOUT;
 1215              		.loc 1 671 0
 1216 0636 0320     		movs	r0, #3
 1217 0638 32E0     		b	.L11
 1218              	.L134:
 672:Drivers/STM32F0xx_HAL_Driver/Src/stm32f0xx_hal_rcc.c ****           }
 673:Drivers/STM32F0xx_HAL_Driver/Src/stm32f0xx_hal_rcc.c ****         }
 674:Drivers/STM32F0xx_HAL_Driver/Src/stm32f0xx_hal_rcc.c ****       }
 675:Drivers/STM32F0xx_HAL_Driver/Src/stm32f0xx_hal_rcc.c ****       else
 676:Drivers/STM32F0xx_HAL_Driver/Src/stm32f0xx_hal_rcc.c ****       {
 677:Drivers/STM32F0xx_HAL_Driver/Src/stm32f0xx_hal_rcc.c ****         /* Disable the main PLL. */
 678:Drivers/STM32F0xx_HAL_Driver/Src/stm32f0xx_hal_rcc.c ****         __HAL_RCC_PLL_DISABLE();
 679:Drivers/STM32F0xx_HAL_Driver/Src/stm32f0xx_hal_rcc.c ****  
 680:Drivers/STM32F0xx_HAL_Driver/Src/stm32f0xx_hal_rcc.c ****         /* Get Start Tick */
 681:Drivers/STM32F0xx_HAL_Driver/Src/stm32f0xx_hal_rcc.c ****         tickstart = HAL_GetTick();
 682:Drivers/STM32F0xx_HAL_Driver/Src/stm32f0xx_hal_rcc.c ****         
 683:Drivers/STM32F0xx_HAL_Driver/Src/stm32f0xx_hal_rcc.c ****         /* Wait till PLL is disabled */  
 684:Drivers/STM32F0xx_HAL_Driver/Src/stm32f0xx_hal_rcc.c ****         while(__HAL_RCC_GET_FLAG(RCC_FLAG_PLLRDY)  != RESET)
 685:Drivers/STM32F0xx_HAL_Driver/Src/stm32f0xx_hal_rcc.c ****         {
 686:Drivers/STM32F0xx_HAL_Driver/Src/stm32f0xx_hal_rcc.c ****           if((HAL_GetTick() - tickstart ) > PLL_TIMEOUT_VALUE)
 687:Drivers/STM32F0xx_HAL_Driver/Src/stm32f0xx_hal_rcc.c ****           {
 688:Drivers/STM32F0xx_HAL_Driver/Src/stm32f0xx_hal_rcc.c ****             return HAL_TIMEOUT;
 689:Drivers/STM32F0xx_HAL_Driver/Src/stm32f0xx_hal_rcc.c ****           }
 690:Drivers/STM32F0xx_HAL_Driver/Src/stm32f0xx_hal_rcc.c ****         }
 691:Drivers/STM32F0xx_HAL_Driver/Src/stm32f0xx_hal_rcc.c ****       }
 692:Drivers/STM32F0xx_HAL_Driver/Src/stm32f0xx_hal_rcc.c ****     }
 693:Drivers/STM32F0xx_HAL_Driver/Src/stm32f0xx_hal_rcc.c ****     else
 694:Drivers/STM32F0xx_HAL_Driver/Src/stm32f0xx_hal_rcc.c ****     {
 695:Drivers/STM32F0xx_HAL_Driver/Src/stm32f0xx_hal_rcc.c ****       return HAL_ERROR;
 696:Drivers/STM32F0xx_HAL_Driver/Src/stm32f0xx_hal_rcc.c ****     }
 697:Drivers/STM32F0xx_HAL_Driver/Src/stm32f0xx_hal_rcc.c ****   }
 698:Drivers/STM32F0xx_HAL_Driver/Src/stm32f0xx_hal_rcc.c ****   
 699:Drivers/STM32F0xx_HAL_Driver/Src/stm32f0xx_hal_rcc.c ****   return HAL_OK;
 1219              		.loc 1 699 0
 1220 063a 0020     		movs	r0, #0
 1221 063c 30E0     		b	.L11
 1222              	.L139:
 1223 063e C046     		.align	2
 1224              	.L138:
 1225 0640 00100240 		.word	1073876992
 1226 0644 88130000 		.word	5000
 1227 0648 FFFFFFEF 		.word	-268435457
 1228 064c 00000000 		.word	.LC3
 1229 0650 01020000 		.word	513
 1230 0654 3E020000 		.word	574
ARM GAS  /tmp/ccVTF5Db.s 			page 36


 1231 0658 FFFFFEFF 		.word	-65537
 1232 065c FFFFFFFE 		.word	-16777217
 1233 0660 7D020000 		.word	637
 1234 0664 7E020000 		.word	638
 1235 0668 7F020000 		.word	639
 1236 066c FF7FC2FF 		.word	-4030465
 1237              	.LVL86:
 1238              	.L74:
 678:Drivers/STM32F0xx_HAL_Driver/Src/stm32f0xx_hal_rcc.c ****  
 1239              		.loc 1 678 0
 1240 0670 0D4A     		ldr	r2, .L140
 1241 0672 1368     		ldr	r3, [r2]
 1242 0674 0D49     		ldr	r1, .L140+4
 1243 0676 0B40     		ands	r3, r1
 1244 0678 1360     		str	r3, [r2]
 681:Drivers/STM32F0xx_HAL_Driver/Src/stm32f0xx_hal_rcc.c ****         
 1245              		.loc 1 681 0
 1246 067a FFF7FEFF 		bl	HAL_GetTick
 1247              	.LVL87:
 1248 067e 0400     		movs	r4, r0
 1249              	.LVL88:
 1250              	.L82:
 684:Drivers/STM32F0xx_HAL_Driver/Src/stm32f0xx_hal_rcc.c ****         {
 1251              		.loc 1 684 0
 1252 0680 094B     		ldr	r3, .L140
 1253 0682 1B68     		ldr	r3, [r3]
 1254 0684 9B01     		lsls	r3, r3, #6
 1255 0686 06D5     		bpl	.L135
 686:Drivers/STM32F0xx_HAL_Driver/Src/stm32f0xx_hal_rcc.c ****           {
 1256              		.loc 1 686 0
 1257 0688 FFF7FEFF 		bl	HAL_GetTick
 1258              	.LVL89:
 1259 068c 001B     		subs	r0, r0, r4
 1260 068e 0228     		cmp	r0, #2
 1261 0690 F6D9     		bls	.L82
 688:Drivers/STM32F0xx_HAL_Driver/Src/stm32f0xx_hal_rcc.c ****           }
 1262              		.loc 1 688 0
 1263 0692 0320     		movs	r0, #3
 1264 0694 04E0     		b	.L11
 1265              	.L135:
 1266              		.loc 1 699 0
 1267 0696 0020     		movs	r0, #0
 1268 0698 02E0     		b	.L11
 1269              	.LVL90:
 1270              	.L111:
 289:Drivers/STM32F0xx_HAL_Driver/Src/stm32f0xx_hal_rcc.c ****       }
 1271              		.loc 1 289 0
 1272 069a 0120     		movs	r0, #1
 1273 069c 00E0     		b	.L11
 1274              	.LVL91:
 1275              	.L101:
 1276              		.loc 1 699 0
 1277 069e 0020     		movs	r0, #0
 1278              	.LVL92:
 1279              	.L11:
 700:Drivers/STM32F0xx_HAL_Driver/Src/stm32f0xx_hal_rcc.c **** }
 1280              		.loc 1 700 0
ARM GAS  /tmp/ccVTF5Db.s 			page 37


 1281 06a0 02B0     		add	sp, sp, #8
 1282              		@ sp needed
 1283 06a2 70BD     		pop	{r4, r5, r6, pc}
 1284              	.LVL93:
 1285              	.L102:
 695:Drivers/STM32F0xx_HAL_Driver/Src/stm32f0xx_hal_rcc.c ****     }
 1286              		.loc 1 695 0
 1287 06a4 0120     		movs	r0, #1
 1288 06a6 FBE7     		b	.L11
 1289              	.L141:
 1290              		.align	2
 1291              	.L140:
 1292 06a8 00100240 		.word	1073876992
 1293 06ac FFFFFFFE 		.word	-16777217
 1294              		.cfi_endproc
 1295              	.LFE38:
 1297              		.section	.text.HAL_RCC_MCOConfig,"ax",%progbits
 1298              		.align	1
 1299              		.global	HAL_RCC_MCOConfig
 1300              		.syntax unified
 1301              		.code	16
 1302              		.thumb_func
 1303              		.fpu softvfp
 1305              	HAL_RCC_MCOConfig:
 1306              	.LFB40:
 701:Drivers/STM32F0xx_HAL_Driver/Src/stm32f0xx_hal_rcc.c **** 
 702:Drivers/STM32F0xx_HAL_Driver/Src/stm32f0xx_hal_rcc.c **** /**
 703:Drivers/STM32F0xx_HAL_Driver/Src/stm32f0xx_hal_rcc.c ****   * @brief  Initializes the CPU, AHB and APB buses clocks according to the specified 
 704:Drivers/STM32F0xx_HAL_Driver/Src/stm32f0xx_hal_rcc.c ****   *         parameters in the RCC_ClkInitStruct.
 705:Drivers/STM32F0xx_HAL_Driver/Src/stm32f0xx_hal_rcc.c ****   * @param  RCC_ClkInitStruct pointer to an RCC_OscInitTypeDef structure that
 706:Drivers/STM32F0xx_HAL_Driver/Src/stm32f0xx_hal_rcc.c ****   *         contains the configuration information for the RCC peripheral.
 707:Drivers/STM32F0xx_HAL_Driver/Src/stm32f0xx_hal_rcc.c ****   * @param  FLatency FLASH Latency                   
 708:Drivers/STM32F0xx_HAL_Driver/Src/stm32f0xx_hal_rcc.c ****   *          The value of this parameter depend on device used within the same series
 709:Drivers/STM32F0xx_HAL_Driver/Src/stm32f0xx_hal_rcc.c ****   * @note   The SystemCoreClock CMSIS variable is used to store System Clock Frequency 
 710:Drivers/STM32F0xx_HAL_Driver/Src/stm32f0xx_hal_rcc.c ****   *         and updated by @ref HAL_RCC_GetHCLKFreq() function called within this function
 711:Drivers/STM32F0xx_HAL_Driver/Src/stm32f0xx_hal_rcc.c ****   *
 712:Drivers/STM32F0xx_HAL_Driver/Src/stm32f0xx_hal_rcc.c ****   * @note   The HSI is used (enabled by hardware) as system clock source after
 713:Drivers/STM32F0xx_HAL_Driver/Src/stm32f0xx_hal_rcc.c ****   *         start-up from Reset, wake-up from STOP and STANDBY mode, or in case
 714:Drivers/STM32F0xx_HAL_Driver/Src/stm32f0xx_hal_rcc.c ****   *         of failure of the HSE used directly or indirectly as system clock
 715:Drivers/STM32F0xx_HAL_Driver/Src/stm32f0xx_hal_rcc.c ****   *         (if the Clock Security System CSS is enabled).
 716:Drivers/STM32F0xx_HAL_Driver/Src/stm32f0xx_hal_rcc.c ****   *           
 717:Drivers/STM32F0xx_HAL_Driver/Src/stm32f0xx_hal_rcc.c ****   * @note   A switch from one clock source to another occurs only if the target
 718:Drivers/STM32F0xx_HAL_Driver/Src/stm32f0xx_hal_rcc.c ****   *         clock source is ready (clock stable after start-up delay or PLL locked). 
 719:Drivers/STM32F0xx_HAL_Driver/Src/stm32f0xx_hal_rcc.c ****   *         If a clock source which is not yet ready is selected, the switch will
 720:Drivers/STM32F0xx_HAL_Driver/Src/stm32f0xx_hal_rcc.c ****   *         occur when the clock source will be ready. 
 721:Drivers/STM32F0xx_HAL_Driver/Src/stm32f0xx_hal_rcc.c ****   *         You can use @ref HAL_RCC_GetClockConfig() function to know which clock is
 722:Drivers/STM32F0xx_HAL_Driver/Src/stm32f0xx_hal_rcc.c ****   *         currently used as system clock source.
 723:Drivers/STM32F0xx_HAL_Driver/Src/stm32f0xx_hal_rcc.c ****   * @retval HAL status
 724:Drivers/STM32F0xx_HAL_Driver/Src/stm32f0xx_hal_rcc.c ****   */
 725:Drivers/STM32F0xx_HAL_Driver/Src/stm32f0xx_hal_rcc.c **** HAL_StatusTypeDef HAL_RCC_ClockConfig(RCC_ClkInitTypeDef  *RCC_ClkInitStruct, uint32_t FLatency)
 726:Drivers/STM32F0xx_HAL_Driver/Src/stm32f0xx_hal_rcc.c **** {
 727:Drivers/STM32F0xx_HAL_Driver/Src/stm32f0xx_hal_rcc.c ****   uint32_t tickstart = 0U;
 728:Drivers/STM32F0xx_HAL_Driver/Src/stm32f0xx_hal_rcc.c ****   
 729:Drivers/STM32F0xx_HAL_Driver/Src/stm32f0xx_hal_rcc.c ****   /* Check the parameters */
 730:Drivers/STM32F0xx_HAL_Driver/Src/stm32f0xx_hal_rcc.c ****   assert_param(RCC_ClkInitStruct != NULL);
 731:Drivers/STM32F0xx_HAL_Driver/Src/stm32f0xx_hal_rcc.c ****   assert_param(IS_RCC_CLOCKTYPE(RCC_ClkInitStruct->ClockType));
 732:Drivers/STM32F0xx_HAL_Driver/Src/stm32f0xx_hal_rcc.c ****   assert_param(IS_FLASH_LATENCY(FLatency));
ARM GAS  /tmp/ccVTF5Db.s 			page 38


 733:Drivers/STM32F0xx_HAL_Driver/Src/stm32f0xx_hal_rcc.c **** 
 734:Drivers/STM32F0xx_HAL_Driver/Src/stm32f0xx_hal_rcc.c ****   /* To correctly read data from FLASH memory, the number of wait states (LATENCY) 
 735:Drivers/STM32F0xx_HAL_Driver/Src/stm32f0xx_hal_rcc.c ****   must be correctly programmed according to the frequency of the CPU clock 
 736:Drivers/STM32F0xx_HAL_Driver/Src/stm32f0xx_hal_rcc.c ****     (HCLK) of the device. */
 737:Drivers/STM32F0xx_HAL_Driver/Src/stm32f0xx_hal_rcc.c **** 
 738:Drivers/STM32F0xx_HAL_Driver/Src/stm32f0xx_hal_rcc.c ****   /* Increasing the number of wait states because of higher CPU frequency */
 739:Drivers/STM32F0xx_HAL_Driver/Src/stm32f0xx_hal_rcc.c ****   if(FLatency > (FLASH->ACR & FLASH_ACR_LATENCY))
 740:Drivers/STM32F0xx_HAL_Driver/Src/stm32f0xx_hal_rcc.c ****   {    
 741:Drivers/STM32F0xx_HAL_Driver/Src/stm32f0xx_hal_rcc.c ****     /* Program the new number of wait states to the LATENCY bits in the FLASH_ACR register */
 742:Drivers/STM32F0xx_HAL_Driver/Src/stm32f0xx_hal_rcc.c ****     __HAL_FLASH_SET_LATENCY(FLatency);
 743:Drivers/STM32F0xx_HAL_Driver/Src/stm32f0xx_hal_rcc.c ****     
 744:Drivers/STM32F0xx_HAL_Driver/Src/stm32f0xx_hal_rcc.c ****     /* Check that the new number of wait states is taken into account to access the Flash
 745:Drivers/STM32F0xx_HAL_Driver/Src/stm32f0xx_hal_rcc.c ****     memory by reading the FLASH_ACR register */
 746:Drivers/STM32F0xx_HAL_Driver/Src/stm32f0xx_hal_rcc.c ****     if((FLASH->ACR & FLASH_ACR_LATENCY) != FLatency)
 747:Drivers/STM32F0xx_HAL_Driver/Src/stm32f0xx_hal_rcc.c ****     {
 748:Drivers/STM32F0xx_HAL_Driver/Src/stm32f0xx_hal_rcc.c ****       return HAL_ERROR;
 749:Drivers/STM32F0xx_HAL_Driver/Src/stm32f0xx_hal_rcc.c ****     }
 750:Drivers/STM32F0xx_HAL_Driver/Src/stm32f0xx_hal_rcc.c ****   }
 751:Drivers/STM32F0xx_HAL_Driver/Src/stm32f0xx_hal_rcc.c **** 
 752:Drivers/STM32F0xx_HAL_Driver/Src/stm32f0xx_hal_rcc.c ****   /*-------------------------- HCLK Configuration --------------------------*/
 753:Drivers/STM32F0xx_HAL_Driver/Src/stm32f0xx_hal_rcc.c ****   if(((RCC_ClkInitStruct->ClockType) & RCC_CLOCKTYPE_HCLK) == RCC_CLOCKTYPE_HCLK)
 754:Drivers/STM32F0xx_HAL_Driver/Src/stm32f0xx_hal_rcc.c ****   {
 755:Drivers/STM32F0xx_HAL_Driver/Src/stm32f0xx_hal_rcc.c ****     assert_param(IS_RCC_HCLK(RCC_ClkInitStruct->AHBCLKDivider));
 756:Drivers/STM32F0xx_HAL_Driver/Src/stm32f0xx_hal_rcc.c ****     MODIFY_REG(RCC->CFGR, RCC_CFGR_HPRE, RCC_ClkInitStruct->AHBCLKDivider);
 757:Drivers/STM32F0xx_HAL_Driver/Src/stm32f0xx_hal_rcc.c ****   }
 758:Drivers/STM32F0xx_HAL_Driver/Src/stm32f0xx_hal_rcc.c **** 
 759:Drivers/STM32F0xx_HAL_Driver/Src/stm32f0xx_hal_rcc.c ****   /*------------------------- SYSCLK Configuration ---------------------------*/ 
 760:Drivers/STM32F0xx_HAL_Driver/Src/stm32f0xx_hal_rcc.c ****   if(((RCC_ClkInitStruct->ClockType) & RCC_CLOCKTYPE_SYSCLK) == RCC_CLOCKTYPE_SYSCLK)
 761:Drivers/STM32F0xx_HAL_Driver/Src/stm32f0xx_hal_rcc.c ****   {    
 762:Drivers/STM32F0xx_HAL_Driver/Src/stm32f0xx_hal_rcc.c ****     assert_param(IS_RCC_SYSCLKSOURCE(RCC_ClkInitStruct->SYSCLKSource));
 763:Drivers/STM32F0xx_HAL_Driver/Src/stm32f0xx_hal_rcc.c ****     
 764:Drivers/STM32F0xx_HAL_Driver/Src/stm32f0xx_hal_rcc.c ****     /* HSE is selected as System Clock Source */
 765:Drivers/STM32F0xx_HAL_Driver/Src/stm32f0xx_hal_rcc.c ****     if(RCC_ClkInitStruct->SYSCLKSource == RCC_SYSCLKSOURCE_HSE)
 766:Drivers/STM32F0xx_HAL_Driver/Src/stm32f0xx_hal_rcc.c ****     {
 767:Drivers/STM32F0xx_HAL_Driver/Src/stm32f0xx_hal_rcc.c ****       /* Check the HSE ready flag */  
 768:Drivers/STM32F0xx_HAL_Driver/Src/stm32f0xx_hal_rcc.c ****       if(__HAL_RCC_GET_FLAG(RCC_FLAG_HSERDY) == RESET)
 769:Drivers/STM32F0xx_HAL_Driver/Src/stm32f0xx_hal_rcc.c ****       {
 770:Drivers/STM32F0xx_HAL_Driver/Src/stm32f0xx_hal_rcc.c ****         return HAL_ERROR;
 771:Drivers/STM32F0xx_HAL_Driver/Src/stm32f0xx_hal_rcc.c ****       }
 772:Drivers/STM32F0xx_HAL_Driver/Src/stm32f0xx_hal_rcc.c ****     }
 773:Drivers/STM32F0xx_HAL_Driver/Src/stm32f0xx_hal_rcc.c ****     /* PLL is selected as System Clock Source */
 774:Drivers/STM32F0xx_HAL_Driver/Src/stm32f0xx_hal_rcc.c ****     else if(RCC_ClkInitStruct->SYSCLKSource == RCC_SYSCLKSOURCE_PLLCLK)
 775:Drivers/STM32F0xx_HAL_Driver/Src/stm32f0xx_hal_rcc.c ****     {
 776:Drivers/STM32F0xx_HAL_Driver/Src/stm32f0xx_hal_rcc.c ****       /* Check the PLL ready flag */  
 777:Drivers/STM32F0xx_HAL_Driver/Src/stm32f0xx_hal_rcc.c ****       if(__HAL_RCC_GET_FLAG(RCC_FLAG_PLLRDY) == RESET)
 778:Drivers/STM32F0xx_HAL_Driver/Src/stm32f0xx_hal_rcc.c ****       {
 779:Drivers/STM32F0xx_HAL_Driver/Src/stm32f0xx_hal_rcc.c ****         return HAL_ERROR;
 780:Drivers/STM32F0xx_HAL_Driver/Src/stm32f0xx_hal_rcc.c ****       }
 781:Drivers/STM32F0xx_HAL_Driver/Src/stm32f0xx_hal_rcc.c ****     }
 782:Drivers/STM32F0xx_HAL_Driver/Src/stm32f0xx_hal_rcc.c **** #if defined(RCC_CFGR_SWS_HSI48)
 783:Drivers/STM32F0xx_HAL_Driver/Src/stm32f0xx_hal_rcc.c ****     /* HSI48 is selected as System Clock Source */
 784:Drivers/STM32F0xx_HAL_Driver/Src/stm32f0xx_hal_rcc.c ****     else if(RCC_ClkInitStruct->SYSCLKSource == RCC_SYSCLKSOURCE_HSI48)
 785:Drivers/STM32F0xx_HAL_Driver/Src/stm32f0xx_hal_rcc.c ****     {
 786:Drivers/STM32F0xx_HAL_Driver/Src/stm32f0xx_hal_rcc.c ****       /* Check the HSI48 ready flag */
 787:Drivers/STM32F0xx_HAL_Driver/Src/stm32f0xx_hal_rcc.c ****       if(__HAL_RCC_GET_FLAG(RCC_FLAG_HSI48RDY) == RESET)
 788:Drivers/STM32F0xx_HAL_Driver/Src/stm32f0xx_hal_rcc.c ****       {
 789:Drivers/STM32F0xx_HAL_Driver/Src/stm32f0xx_hal_rcc.c ****         return HAL_ERROR;
ARM GAS  /tmp/ccVTF5Db.s 			page 39


 790:Drivers/STM32F0xx_HAL_Driver/Src/stm32f0xx_hal_rcc.c ****       }
 791:Drivers/STM32F0xx_HAL_Driver/Src/stm32f0xx_hal_rcc.c ****     }
 792:Drivers/STM32F0xx_HAL_Driver/Src/stm32f0xx_hal_rcc.c **** #endif /* RCC_CFGR_SWS_HSI48 */
 793:Drivers/STM32F0xx_HAL_Driver/Src/stm32f0xx_hal_rcc.c ****     /* HSI is selected as System Clock Source */
 794:Drivers/STM32F0xx_HAL_Driver/Src/stm32f0xx_hal_rcc.c ****     else
 795:Drivers/STM32F0xx_HAL_Driver/Src/stm32f0xx_hal_rcc.c ****     {
 796:Drivers/STM32F0xx_HAL_Driver/Src/stm32f0xx_hal_rcc.c ****       /* Check the HSI ready flag */  
 797:Drivers/STM32F0xx_HAL_Driver/Src/stm32f0xx_hal_rcc.c ****       if(__HAL_RCC_GET_FLAG(RCC_FLAG_HSIRDY) == RESET)
 798:Drivers/STM32F0xx_HAL_Driver/Src/stm32f0xx_hal_rcc.c ****       {
 799:Drivers/STM32F0xx_HAL_Driver/Src/stm32f0xx_hal_rcc.c ****         return HAL_ERROR;
 800:Drivers/STM32F0xx_HAL_Driver/Src/stm32f0xx_hal_rcc.c ****       }
 801:Drivers/STM32F0xx_HAL_Driver/Src/stm32f0xx_hal_rcc.c ****     }
 802:Drivers/STM32F0xx_HAL_Driver/Src/stm32f0xx_hal_rcc.c ****     __HAL_RCC_SYSCLK_CONFIG(RCC_ClkInitStruct->SYSCLKSource);
 803:Drivers/STM32F0xx_HAL_Driver/Src/stm32f0xx_hal_rcc.c **** 
 804:Drivers/STM32F0xx_HAL_Driver/Src/stm32f0xx_hal_rcc.c ****     /* Get Start Tick */
 805:Drivers/STM32F0xx_HAL_Driver/Src/stm32f0xx_hal_rcc.c ****     tickstart = HAL_GetTick();
 806:Drivers/STM32F0xx_HAL_Driver/Src/stm32f0xx_hal_rcc.c ****     
 807:Drivers/STM32F0xx_HAL_Driver/Src/stm32f0xx_hal_rcc.c ****     if(RCC_ClkInitStruct->SYSCLKSource == RCC_SYSCLKSOURCE_HSE)
 808:Drivers/STM32F0xx_HAL_Driver/Src/stm32f0xx_hal_rcc.c ****     {
 809:Drivers/STM32F0xx_HAL_Driver/Src/stm32f0xx_hal_rcc.c ****       while (__HAL_RCC_GET_SYSCLK_SOURCE() != RCC_SYSCLKSOURCE_STATUS_HSE)
 810:Drivers/STM32F0xx_HAL_Driver/Src/stm32f0xx_hal_rcc.c ****       {
 811:Drivers/STM32F0xx_HAL_Driver/Src/stm32f0xx_hal_rcc.c ****         if((HAL_GetTick() - tickstart ) > CLOCKSWITCH_TIMEOUT_VALUE)
 812:Drivers/STM32F0xx_HAL_Driver/Src/stm32f0xx_hal_rcc.c ****         {
 813:Drivers/STM32F0xx_HAL_Driver/Src/stm32f0xx_hal_rcc.c ****           return HAL_TIMEOUT;
 814:Drivers/STM32F0xx_HAL_Driver/Src/stm32f0xx_hal_rcc.c ****         }
 815:Drivers/STM32F0xx_HAL_Driver/Src/stm32f0xx_hal_rcc.c ****       }
 816:Drivers/STM32F0xx_HAL_Driver/Src/stm32f0xx_hal_rcc.c ****     }
 817:Drivers/STM32F0xx_HAL_Driver/Src/stm32f0xx_hal_rcc.c ****     else if(RCC_ClkInitStruct->SYSCLKSource == RCC_SYSCLKSOURCE_PLLCLK)
 818:Drivers/STM32F0xx_HAL_Driver/Src/stm32f0xx_hal_rcc.c ****     {
 819:Drivers/STM32F0xx_HAL_Driver/Src/stm32f0xx_hal_rcc.c ****       while (__HAL_RCC_GET_SYSCLK_SOURCE() != RCC_SYSCLKSOURCE_STATUS_PLLCLK)
 820:Drivers/STM32F0xx_HAL_Driver/Src/stm32f0xx_hal_rcc.c ****       {
 821:Drivers/STM32F0xx_HAL_Driver/Src/stm32f0xx_hal_rcc.c ****         if((HAL_GetTick() - tickstart ) > CLOCKSWITCH_TIMEOUT_VALUE)
 822:Drivers/STM32F0xx_HAL_Driver/Src/stm32f0xx_hal_rcc.c ****         {
 823:Drivers/STM32F0xx_HAL_Driver/Src/stm32f0xx_hal_rcc.c ****           return HAL_TIMEOUT;
 824:Drivers/STM32F0xx_HAL_Driver/Src/stm32f0xx_hal_rcc.c ****         }
 825:Drivers/STM32F0xx_HAL_Driver/Src/stm32f0xx_hal_rcc.c ****       }
 826:Drivers/STM32F0xx_HAL_Driver/Src/stm32f0xx_hal_rcc.c ****     }
 827:Drivers/STM32F0xx_HAL_Driver/Src/stm32f0xx_hal_rcc.c **** #if defined(RCC_CFGR_SWS_HSI48)
 828:Drivers/STM32F0xx_HAL_Driver/Src/stm32f0xx_hal_rcc.c ****     else if(RCC_ClkInitStruct->SYSCLKSource == RCC_SYSCLKSOURCE_HSI48)
 829:Drivers/STM32F0xx_HAL_Driver/Src/stm32f0xx_hal_rcc.c ****     {
 830:Drivers/STM32F0xx_HAL_Driver/Src/stm32f0xx_hal_rcc.c ****       while (__HAL_RCC_GET_SYSCLK_SOURCE() != RCC_SYSCLKSOURCE_STATUS_HSI48)
 831:Drivers/STM32F0xx_HAL_Driver/Src/stm32f0xx_hal_rcc.c ****       {
 832:Drivers/STM32F0xx_HAL_Driver/Src/stm32f0xx_hal_rcc.c ****         if((HAL_GetTick() - tickstart) > CLOCKSWITCH_TIMEOUT_VALUE)
 833:Drivers/STM32F0xx_HAL_Driver/Src/stm32f0xx_hal_rcc.c ****         {
 834:Drivers/STM32F0xx_HAL_Driver/Src/stm32f0xx_hal_rcc.c ****           return HAL_TIMEOUT;
 835:Drivers/STM32F0xx_HAL_Driver/Src/stm32f0xx_hal_rcc.c ****         }
 836:Drivers/STM32F0xx_HAL_Driver/Src/stm32f0xx_hal_rcc.c ****       }
 837:Drivers/STM32F0xx_HAL_Driver/Src/stm32f0xx_hal_rcc.c ****     }
 838:Drivers/STM32F0xx_HAL_Driver/Src/stm32f0xx_hal_rcc.c **** #endif /* RCC_CFGR_SWS_HSI48 */
 839:Drivers/STM32F0xx_HAL_Driver/Src/stm32f0xx_hal_rcc.c ****     else
 840:Drivers/STM32F0xx_HAL_Driver/Src/stm32f0xx_hal_rcc.c ****     {
 841:Drivers/STM32F0xx_HAL_Driver/Src/stm32f0xx_hal_rcc.c ****       while (__HAL_RCC_GET_SYSCLK_SOURCE() != RCC_SYSCLKSOURCE_STATUS_HSI)
 842:Drivers/STM32F0xx_HAL_Driver/Src/stm32f0xx_hal_rcc.c ****       {
 843:Drivers/STM32F0xx_HAL_Driver/Src/stm32f0xx_hal_rcc.c ****         if((HAL_GetTick() - tickstart ) > CLOCKSWITCH_TIMEOUT_VALUE)
 844:Drivers/STM32F0xx_HAL_Driver/Src/stm32f0xx_hal_rcc.c ****         {
 845:Drivers/STM32F0xx_HAL_Driver/Src/stm32f0xx_hal_rcc.c ****           return HAL_TIMEOUT;
 846:Drivers/STM32F0xx_HAL_Driver/Src/stm32f0xx_hal_rcc.c ****         }
ARM GAS  /tmp/ccVTF5Db.s 			page 40


 847:Drivers/STM32F0xx_HAL_Driver/Src/stm32f0xx_hal_rcc.c ****       }
 848:Drivers/STM32F0xx_HAL_Driver/Src/stm32f0xx_hal_rcc.c ****     }      
 849:Drivers/STM32F0xx_HAL_Driver/Src/stm32f0xx_hal_rcc.c ****   }    
 850:Drivers/STM32F0xx_HAL_Driver/Src/stm32f0xx_hal_rcc.c ****   /* Decreasing the number of wait states because of lower CPU frequency */
 851:Drivers/STM32F0xx_HAL_Driver/Src/stm32f0xx_hal_rcc.c ****   if(FLatency < (FLASH->ACR & FLASH_ACR_LATENCY))
 852:Drivers/STM32F0xx_HAL_Driver/Src/stm32f0xx_hal_rcc.c ****   {    
 853:Drivers/STM32F0xx_HAL_Driver/Src/stm32f0xx_hal_rcc.c ****     /* Program the new number of wait states to the LATENCY bits in the FLASH_ACR register */
 854:Drivers/STM32F0xx_HAL_Driver/Src/stm32f0xx_hal_rcc.c ****     __HAL_FLASH_SET_LATENCY(FLatency);
 855:Drivers/STM32F0xx_HAL_Driver/Src/stm32f0xx_hal_rcc.c ****     
 856:Drivers/STM32F0xx_HAL_Driver/Src/stm32f0xx_hal_rcc.c ****     /* Check that the new number of wait states is taken into account to access the Flash
 857:Drivers/STM32F0xx_HAL_Driver/Src/stm32f0xx_hal_rcc.c ****     memory by reading the FLASH_ACR register */
 858:Drivers/STM32F0xx_HAL_Driver/Src/stm32f0xx_hal_rcc.c ****     if((FLASH->ACR & FLASH_ACR_LATENCY) != FLatency)
 859:Drivers/STM32F0xx_HAL_Driver/Src/stm32f0xx_hal_rcc.c ****     {
 860:Drivers/STM32F0xx_HAL_Driver/Src/stm32f0xx_hal_rcc.c ****       return HAL_ERROR;
 861:Drivers/STM32F0xx_HAL_Driver/Src/stm32f0xx_hal_rcc.c ****     }
 862:Drivers/STM32F0xx_HAL_Driver/Src/stm32f0xx_hal_rcc.c ****   }    
 863:Drivers/STM32F0xx_HAL_Driver/Src/stm32f0xx_hal_rcc.c **** 
 864:Drivers/STM32F0xx_HAL_Driver/Src/stm32f0xx_hal_rcc.c ****   /*-------------------------- PCLK1 Configuration ---------------------------*/ 
 865:Drivers/STM32F0xx_HAL_Driver/Src/stm32f0xx_hal_rcc.c ****   if(((RCC_ClkInitStruct->ClockType) & RCC_CLOCKTYPE_PCLK1) == RCC_CLOCKTYPE_PCLK1)
 866:Drivers/STM32F0xx_HAL_Driver/Src/stm32f0xx_hal_rcc.c ****   {
 867:Drivers/STM32F0xx_HAL_Driver/Src/stm32f0xx_hal_rcc.c ****     assert_param(IS_RCC_PCLK(RCC_ClkInitStruct->APB1CLKDivider));
 868:Drivers/STM32F0xx_HAL_Driver/Src/stm32f0xx_hal_rcc.c ****     MODIFY_REG(RCC->CFGR, RCC_CFGR_PPRE, RCC_ClkInitStruct->APB1CLKDivider);
 869:Drivers/STM32F0xx_HAL_Driver/Src/stm32f0xx_hal_rcc.c ****   }
 870:Drivers/STM32F0xx_HAL_Driver/Src/stm32f0xx_hal_rcc.c ****   
 871:Drivers/STM32F0xx_HAL_Driver/Src/stm32f0xx_hal_rcc.c ****   /* Update the SystemCoreClock global variable */
 872:Drivers/STM32F0xx_HAL_Driver/Src/stm32f0xx_hal_rcc.c ****   SystemCoreClock = HAL_RCC_GetSysClockFreq() >> AHBPrescTable[(RCC->CFGR & RCC_CFGR_HPRE)>> RCC_CF
 873:Drivers/STM32F0xx_HAL_Driver/Src/stm32f0xx_hal_rcc.c **** 
 874:Drivers/STM32F0xx_HAL_Driver/Src/stm32f0xx_hal_rcc.c ****   /* Configure the source of time base considering new system clocks settings*/
 875:Drivers/STM32F0xx_HAL_Driver/Src/stm32f0xx_hal_rcc.c ****   HAL_InitTick (TICK_INT_PRIORITY);
 876:Drivers/STM32F0xx_HAL_Driver/Src/stm32f0xx_hal_rcc.c ****   
 877:Drivers/STM32F0xx_HAL_Driver/Src/stm32f0xx_hal_rcc.c ****   return HAL_OK;
 878:Drivers/STM32F0xx_HAL_Driver/Src/stm32f0xx_hal_rcc.c **** }
 879:Drivers/STM32F0xx_HAL_Driver/Src/stm32f0xx_hal_rcc.c **** 
 880:Drivers/STM32F0xx_HAL_Driver/Src/stm32f0xx_hal_rcc.c **** /**
 881:Drivers/STM32F0xx_HAL_Driver/Src/stm32f0xx_hal_rcc.c ****   * @}
 882:Drivers/STM32F0xx_HAL_Driver/Src/stm32f0xx_hal_rcc.c ****   */
 883:Drivers/STM32F0xx_HAL_Driver/Src/stm32f0xx_hal_rcc.c **** 
 884:Drivers/STM32F0xx_HAL_Driver/Src/stm32f0xx_hal_rcc.c **** /** @defgroup RCC_Exported_Functions_Group2 Peripheral Control functions
 885:Drivers/STM32F0xx_HAL_Driver/Src/stm32f0xx_hal_rcc.c ****   *  @brief   RCC clocks control functions
 886:Drivers/STM32F0xx_HAL_Driver/Src/stm32f0xx_hal_rcc.c ****   *
 887:Drivers/STM32F0xx_HAL_Driver/Src/stm32f0xx_hal_rcc.c ****   @verbatim   
 888:Drivers/STM32F0xx_HAL_Driver/Src/stm32f0xx_hal_rcc.c ****   ===============================================================================
 889:Drivers/STM32F0xx_HAL_Driver/Src/stm32f0xx_hal_rcc.c ****                   ##### Peripheral Control functions #####
 890:Drivers/STM32F0xx_HAL_Driver/Src/stm32f0xx_hal_rcc.c ****   ===============================================================================  
 891:Drivers/STM32F0xx_HAL_Driver/Src/stm32f0xx_hal_rcc.c ****     [..]
 892:Drivers/STM32F0xx_HAL_Driver/Src/stm32f0xx_hal_rcc.c ****     This subsection provides a set of functions allowing to control the RCC Clocks 
 893:Drivers/STM32F0xx_HAL_Driver/Src/stm32f0xx_hal_rcc.c ****     frequencies.
 894:Drivers/STM32F0xx_HAL_Driver/Src/stm32f0xx_hal_rcc.c **** 
 895:Drivers/STM32F0xx_HAL_Driver/Src/stm32f0xx_hal_rcc.c ****   @endverbatim
 896:Drivers/STM32F0xx_HAL_Driver/Src/stm32f0xx_hal_rcc.c ****   * @{
 897:Drivers/STM32F0xx_HAL_Driver/Src/stm32f0xx_hal_rcc.c ****   */
 898:Drivers/STM32F0xx_HAL_Driver/Src/stm32f0xx_hal_rcc.c **** 
 899:Drivers/STM32F0xx_HAL_Driver/Src/stm32f0xx_hal_rcc.c **** #if defined(RCC_CFGR_MCOPRE)
 900:Drivers/STM32F0xx_HAL_Driver/Src/stm32f0xx_hal_rcc.c **** /**
 901:Drivers/STM32F0xx_HAL_Driver/Src/stm32f0xx_hal_rcc.c ****   * @brief  Selects the clock source to output on MCO pin.
 902:Drivers/STM32F0xx_HAL_Driver/Src/stm32f0xx_hal_rcc.c ****   * @note   MCO pin should be configured in alternate function mode.
 903:Drivers/STM32F0xx_HAL_Driver/Src/stm32f0xx_hal_rcc.c ****   * @param  RCC_MCOx specifies the output direction for the clock source.
ARM GAS  /tmp/ccVTF5Db.s 			page 41


 904:Drivers/STM32F0xx_HAL_Driver/Src/stm32f0xx_hal_rcc.c ****   *          This parameter can be one of the following values:
 905:Drivers/STM32F0xx_HAL_Driver/Src/stm32f0xx_hal_rcc.c ****   *            @arg @ref RCC_MCO1 Clock source to output on MCO1 pin(PA8).
 906:Drivers/STM32F0xx_HAL_Driver/Src/stm32f0xx_hal_rcc.c ****   * @param  RCC_MCOSource specifies the clock source to output.
 907:Drivers/STM32F0xx_HAL_Driver/Src/stm32f0xx_hal_rcc.c ****   *          This parameter can be one of the following values:
 908:Drivers/STM32F0xx_HAL_Driver/Src/stm32f0xx_hal_rcc.c ****   *            @arg @ref RCC_MCO1SOURCE_NOCLOCK     No clock selected
 909:Drivers/STM32F0xx_HAL_Driver/Src/stm32f0xx_hal_rcc.c ****   *            @arg @ref RCC_MCO1SOURCE_SYSCLK      System Clock selected as MCO clock
 910:Drivers/STM32F0xx_HAL_Driver/Src/stm32f0xx_hal_rcc.c ****   *            @arg @ref RCC_MCO1SOURCE_HSI         HSI selected as MCO clock
 911:Drivers/STM32F0xx_HAL_Driver/Src/stm32f0xx_hal_rcc.c ****   *            @arg @ref RCC_MCO1SOURCE_HSE         HSE selected as MCO clock
 912:Drivers/STM32F0xx_HAL_Driver/Src/stm32f0xx_hal_rcc.c ****   *            @arg @ref RCC_MCO1SOURCE_LSI         LSI selected as MCO clock
 913:Drivers/STM32F0xx_HAL_Driver/Src/stm32f0xx_hal_rcc.c ****   *            @arg @ref RCC_MCO1SOURCE_LSE         LSE selected as MCO clock
 914:Drivers/STM32F0xx_HAL_Driver/Src/stm32f0xx_hal_rcc.c ****   *            @arg @ref RCC_MCO1SOURCE_HSI14       HSI14 selected as MCO clock
 915:Drivers/STM32F0xx_HAL_Driver/Src/stm32f0xx_hal_rcc.c ****   @if STM32F042x6
 916:Drivers/STM32F0xx_HAL_Driver/Src/stm32f0xx_hal_rcc.c ****   *            @arg @ref RCC_MCO1SOURCE_HSI48       HSI48 selected as MCO clock
 917:Drivers/STM32F0xx_HAL_Driver/Src/stm32f0xx_hal_rcc.c ****   *            @arg @ref RCC_MCO1SOURCE_PLLCLK      PLLCLK selected as MCO clock
 918:Drivers/STM32F0xx_HAL_Driver/Src/stm32f0xx_hal_rcc.c ****   @elseif STM32F048xx
 919:Drivers/STM32F0xx_HAL_Driver/Src/stm32f0xx_hal_rcc.c ****   *            @arg @ref RCC_MCO1SOURCE_HSI48       HSI48 selected as MCO clock
 920:Drivers/STM32F0xx_HAL_Driver/Src/stm32f0xx_hal_rcc.c ****   *            @arg @ref RCC_MCO1SOURCE_PLLCLK      PLLCLK selected as MCO clock
 921:Drivers/STM32F0xx_HAL_Driver/Src/stm32f0xx_hal_rcc.c ****   @elseif STM32F071xB
 922:Drivers/STM32F0xx_HAL_Driver/Src/stm32f0xx_hal_rcc.c ****   *            @arg @ref RCC_MCO1SOURCE_HSI48       HSI48 selected as MCO clock
 923:Drivers/STM32F0xx_HAL_Driver/Src/stm32f0xx_hal_rcc.c ****   *            @arg @ref RCC_MCO1SOURCE_PLLCLK      PLLCLK selected as MCO clock
 924:Drivers/STM32F0xx_HAL_Driver/Src/stm32f0xx_hal_rcc.c ****   @elseif STM32F072xB
 925:Drivers/STM32F0xx_HAL_Driver/Src/stm32f0xx_hal_rcc.c ****   *            @arg @ref RCC_MCO1SOURCE_HSI48       HSI48 selected as MCO clock
 926:Drivers/STM32F0xx_HAL_Driver/Src/stm32f0xx_hal_rcc.c ****   *            @arg @ref RCC_MCO1SOURCE_PLLCLK      PLLCLK selected as MCO clock
 927:Drivers/STM32F0xx_HAL_Driver/Src/stm32f0xx_hal_rcc.c ****   @elseif STM32F078xx
 928:Drivers/STM32F0xx_HAL_Driver/Src/stm32f0xx_hal_rcc.c ****   *            @arg @ref RCC_MCO1SOURCE_HSI48       HSI48 selected as MCO clock
 929:Drivers/STM32F0xx_HAL_Driver/Src/stm32f0xx_hal_rcc.c ****   *            @arg @ref RCC_MCO1SOURCE_PLLCLK      PLLCLK selected as MCO clock
 930:Drivers/STM32F0xx_HAL_Driver/Src/stm32f0xx_hal_rcc.c ****   @elseif STM32F091xC
 931:Drivers/STM32F0xx_HAL_Driver/Src/stm32f0xx_hal_rcc.c ****   *            @arg @ref RCC_MCO1SOURCE_HSI48       HSI48 selected as MCO clock
 932:Drivers/STM32F0xx_HAL_Driver/Src/stm32f0xx_hal_rcc.c ****   *            @arg @ref RCC_MCO1SOURCE_PLLCLK      PLLCLK selected as MCO clock
 933:Drivers/STM32F0xx_HAL_Driver/Src/stm32f0xx_hal_rcc.c ****   @elseif STM32F098xx
 934:Drivers/STM32F0xx_HAL_Driver/Src/stm32f0xx_hal_rcc.c ****   *            @arg @ref RCC_MCO1SOURCE_HSI48       HSI48 selected as MCO clock
 935:Drivers/STM32F0xx_HAL_Driver/Src/stm32f0xx_hal_rcc.c ****   *            @arg @ref RCC_MCO1SOURCE_PLLCLK      PLLCLK selected as MCO clock
 936:Drivers/STM32F0xx_HAL_Driver/Src/stm32f0xx_hal_rcc.c ****   @elif STM32F030x6
 937:Drivers/STM32F0xx_HAL_Driver/Src/stm32f0xx_hal_rcc.c ****   *            @arg @ref RCC_MCO1SOURCE_PLLCLK      PLLCLK selected as MCO clock
 938:Drivers/STM32F0xx_HAL_Driver/Src/stm32f0xx_hal_rcc.c ****   @elif STM32F030xC
 939:Drivers/STM32F0xx_HAL_Driver/Src/stm32f0xx_hal_rcc.c ****   *            @arg @ref RCC_MCO1SOURCE_PLLCLK      PLLCLK selected as MCO clock
 940:Drivers/STM32F0xx_HAL_Driver/Src/stm32f0xx_hal_rcc.c ****   @elif STM32F031x6
 941:Drivers/STM32F0xx_HAL_Driver/Src/stm32f0xx_hal_rcc.c ****   *            @arg @ref RCC_MCO1SOURCE_PLLCLK      PLLCLK selected as MCO clock
 942:Drivers/STM32F0xx_HAL_Driver/Src/stm32f0xx_hal_rcc.c ****   @elif STM32F038xx
 943:Drivers/STM32F0xx_HAL_Driver/Src/stm32f0xx_hal_rcc.c ****   *            @arg @ref RCC_MCO1SOURCE_PLLCLK      PLLCLK selected as MCO clock
 944:Drivers/STM32F0xx_HAL_Driver/Src/stm32f0xx_hal_rcc.c ****   @elif STM32F070x6
 945:Drivers/STM32F0xx_HAL_Driver/Src/stm32f0xx_hal_rcc.c ****   *            @arg @ref RCC_MCO1SOURCE_PLLCLK      PLLCLK selected as MCO clock
 946:Drivers/STM32F0xx_HAL_Driver/Src/stm32f0xx_hal_rcc.c ****   @elif STM32F070xB
 947:Drivers/STM32F0xx_HAL_Driver/Src/stm32f0xx_hal_rcc.c ****   *            @arg @ref RCC_MCO1SOURCE_PLLCLK      PLLCLK selected as MCO clock
 948:Drivers/STM32F0xx_HAL_Driver/Src/stm32f0xx_hal_rcc.c ****   @endif
 949:Drivers/STM32F0xx_HAL_Driver/Src/stm32f0xx_hal_rcc.c ****   *            @arg @ref RCC_MCO1SOURCE_PLLCLK_DIV2 PLLCLK Divided by 2 selected as MCO clock
 950:Drivers/STM32F0xx_HAL_Driver/Src/stm32f0xx_hal_rcc.c ****   * @param  RCC_MCODiv specifies the MCO DIV.
 951:Drivers/STM32F0xx_HAL_Driver/Src/stm32f0xx_hal_rcc.c ****   *          This parameter can be one of the following values:
 952:Drivers/STM32F0xx_HAL_Driver/Src/stm32f0xx_hal_rcc.c ****   *            @arg @ref RCC_MCODIV_1   no division applied to MCO clock
 953:Drivers/STM32F0xx_HAL_Driver/Src/stm32f0xx_hal_rcc.c ****   *            @arg @ref RCC_MCODIV_2   division by 2 applied to MCO clock
 954:Drivers/STM32F0xx_HAL_Driver/Src/stm32f0xx_hal_rcc.c ****   *            @arg @ref RCC_MCODIV_4   division by 4 applied to MCO clock
 955:Drivers/STM32F0xx_HAL_Driver/Src/stm32f0xx_hal_rcc.c ****   *            @arg @ref RCC_MCODIV_8   division by 8 applied to MCO clock
 956:Drivers/STM32F0xx_HAL_Driver/Src/stm32f0xx_hal_rcc.c ****   *            @arg @ref RCC_MCODIV_16  division by 16 applied to MCO clock
 957:Drivers/STM32F0xx_HAL_Driver/Src/stm32f0xx_hal_rcc.c ****   *            @arg @ref RCC_MCODIV_32  division by 32 applied to MCO clock
 958:Drivers/STM32F0xx_HAL_Driver/Src/stm32f0xx_hal_rcc.c ****   *            @arg @ref RCC_MCODIV_64  division by 64 applied to MCO clock
 959:Drivers/STM32F0xx_HAL_Driver/Src/stm32f0xx_hal_rcc.c ****   *            @arg @ref RCC_MCODIV_128 division by 128 applied to MCO clock
 960:Drivers/STM32F0xx_HAL_Driver/Src/stm32f0xx_hal_rcc.c ****   * @retval None
ARM GAS  /tmp/ccVTF5Db.s 			page 42


 961:Drivers/STM32F0xx_HAL_Driver/Src/stm32f0xx_hal_rcc.c ****   */
 962:Drivers/STM32F0xx_HAL_Driver/Src/stm32f0xx_hal_rcc.c **** #else
 963:Drivers/STM32F0xx_HAL_Driver/Src/stm32f0xx_hal_rcc.c **** /**
 964:Drivers/STM32F0xx_HAL_Driver/Src/stm32f0xx_hal_rcc.c ****   * @brief  Selects the clock source to output on MCO pin.
 965:Drivers/STM32F0xx_HAL_Driver/Src/stm32f0xx_hal_rcc.c ****   * @note   MCO pin should be configured in alternate function mode.
 966:Drivers/STM32F0xx_HAL_Driver/Src/stm32f0xx_hal_rcc.c ****   * @param  RCC_MCOx specifies the output direction for the clock source.
 967:Drivers/STM32F0xx_HAL_Driver/Src/stm32f0xx_hal_rcc.c ****   *          This parameter can be one of the following values:
 968:Drivers/STM32F0xx_HAL_Driver/Src/stm32f0xx_hal_rcc.c ****   *            @arg @ref RCC_MCO1 Clock source to output on MCO1 pin(PA8).
 969:Drivers/STM32F0xx_HAL_Driver/Src/stm32f0xx_hal_rcc.c ****   * @param  RCC_MCOSource specifies the clock source to output.
 970:Drivers/STM32F0xx_HAL_Driver/Src/stm32f0xx_hal_rcc.c ****   *          This parameter can be one of the following values:
 971:Drivers/STM32F0xx_HAL_Driver/Src/stm32f0xx_hal_rcc.c ****   *            @arg @ref RCC_MCO1SOURCE_NOCLOCK     No clock selected as MCO clock
 972:Drivers/STM32F0xx_HAL_Driver/Src/stm32f0xx_hal_rcc.c ****   *            @arg @ref RCC_MCO1SOURCE_SYSCLK      System clock selected as MCO clock
 973:Drivers/STM32F0xx_HAL_Driver/Src/stm32f0xx_hal_rcc.c ****   *            @arg @ref RCC_MCO1SOURCE_HSI         HSI selected as MCO clock
 974:Drivers/STM32F0xx_HAL_Driver/Src/stm32f0xx_hal_rcc.c ****   *            @arg @ref RCC_MCO1SOURCE_HSE         HSE selected as MCO clock
 975:Drivers/STM32F0xx_HAL_Driver/Src/stm32f0xx_hal_rcc.c ****   *            @arg @ref RCC_MCO1SOURCE_LSI         LSI selected as MCO clock
 976:Drivers/STM32F0xx_HAL_Driver/Src/stm32f0xx_hal_rcc.c ****   *            @arg @ref RCC_MCO1SOURCE_LSE         LSE selected as MCO clock
 977:Drivers/STM32F0xx_HAL_Driver/Src/stm32f0xx_hal_rcc.c ****   *            @arg @ref RCC_MCO1SOURCE_HSI14       HSI14 selected as MCO clock
 978:Drivers/STM32F0xx_HAL_Driver/Src/stm32f0xx_hal_rcc.c ****   *            @arg @ref RCC_MCO1SOURCE_PLLCLK_DIV2 PLLCLK Divided by 2 selected as MCO clock
 979:Drivers/STM32F0xx_HAL_Driver/Src/stm32f0xx_hal_rcc.c ****   * @param  RCC_MCODiv specifies the MCO DIV.
 980:Drivers/STM32F0xx_HAL_Driver/Src/stm32f0xx_hal_rcc.c ****   *          This parameter can be one of the following values:
 981:Drivers/STM32F0xx_HAL_Driver/Src/stm32f0xx_hal_rcc.c ****   *            @arg @ref RCC_MCODIV_1 no division applied to MCO clock
 982:Drivers/STM32F0xx_HAL_Driver/Src/stm32f0xx_hal_rcc.c ****   * @retval None
 983:Drivers/STM32F0xx_HAL_Driver/Src/stm32f0xx_hal_rcc.c ****   */
 984:Drivers/STM32F0xx_HAL_Driver/Src/stm32f0xx_hal_rcc.c **** #endif
 985:Drivers/STM32F0xx_HAL_Driver/Src/stm32f0xx_hal_rcc.c **** void HAL_RCC_MCOConfig(uint32_t RCC_MCOx, uint32_t RCC_MCOSource, uint32_t RCC_MCODiv)
 986:Drivers/STM32F0xx_HAL_Driver/Src/stm32f0xx_hal_rcc.c **** {
 1307              		.loc 1 986 0
 1308              		.cfi_startproc
 1309              		@ args = 0, pretend = 0, frame = 24
 1310              		@ frame_needed = 0, uses_anonymous_args = 0
 1311              	.LVL94:
 1312 0000 70B5     		push	{r4, r5, r6, lr}
 1313              	.LCFI2:
 1314              		.cfi_def_cfa_offset 16
 1315              		.cfi_offset 4, -16
 1316              		.cfi_offset 5, -12
 1317              		.cfi_offset 6, -8
 1318              		.cfi_offset 14, -4
 1319 0002 86B0     		sub	sp, sp, #24
 1320              	.LCFI3:
 1321              		.cfi_def_cfa_offset 40
 1322 0004 0E00     		movs	r6, r1
 1323 0006 1400     		movs	r4, r2
 987:Drivers/STM32F0xx_HAL_Driver/Src/stm32f0xx_hal_rcc.c ****   GPIO_InitTypeDef gpio;
 988:Drivers/STM32F0xx_HAL_Driver/Src/stm32f0xx_hal_rcc.c **** 
 989:Drivers/STM32F0xx_HAL_Driver/Src/stm32f0xx_hal_rcc.c ****   /* Check the parameters */
 990:Drivers/STM32F0xx_HAL_Driver/Src/stm32f0xx_hal_rcc.c ****   assert_param(IS_RCC_MCO(RCC_MCOx));
 1324              		.loc 1 990 0
 1325 0008 0028     		cmp	r0, #0
 1326 000a 69D1     		bne	.L146
 1327              	.LVL95:
 1328              	.L143:
 991:Drivers/STM32F0xx_HAL_Driver/Src/stm32f0xx_hal_rcc.c ****   assert_param(IS_RCC_MCODIV(RCC_MCODiv));
 1329              		.loc 1 991 0
 1330 000c 002C     		cmp	r4, #0
 1331 000e 1BD0     		beq	.L144
 1332              		.loc 1 991 0 is_stmt 0 discriminator 1
ARM GAS  /tmp/ccVTF5Db.s 			page 43


 1333 0010 8023     		movs	r3, #128
 1334 0012 5B05     		lsls	r3, r3, #21
 1335 0014 9C42     		cmp	r4, r3
 1336 0016 17D0     		beq	.L144
 1337              		.loc 1 991 0 discriminator 2
 1338 0018 8023     		movs	r3, #128
 1339 001a 9B05     		lsls	r3, r3, #22
 1340 001c 9C42     		cmp	r4, r3
 1341 001e 13D0     		beq	.L144
 1342              		.loc 1 991 0 discriminator 3
 1343 0020 C023     		movs	r3, #192
 1344 0022 9B05     		lsls	r3, r3, #22
 1345 0024 9C42     		cmp	r4, r3
 1346 0026 0FD0     		beq	.L144
 1347              		.loc 1 991 0 discriminator 4
 1348 0028 8023     		movs	r3, #128
 1349 002a DB05     		lsls	r3, r3, #23
 1350 002c 9C42     		cmp	r4, r3
 1351 002e 0BD0     		beq	.L144
 1352              		.loc 1 991 0 discriminator 5
 1353 0030 A023     		movs	r3, #160
 1354 0032 DB05     		lsls	r3, r3, #23
 1355 0034 9C42     		cmp	r4, r3
 1356 0036 07D0     		beq	.L144
 1357              		.loc 1 991 0 discriminator 6
 1358 0038 C023     		movs	r3, #192
 1359 003a DB05     		lsls	r3, r3, #23
 1360 003c 9C42     		cmp	r4, r3
 1361 003e 03D0     		beq	.L144
 1362              		.loc 1 991 0 discriminator 7
 1363 0040 E023     		movs	r3, #224
 1364 0042 DB05     		lsls	r3, r3, #23
 1365 0044 9C42     		cmp	r4, r3
 1366 0046 50D1     		bne	.L147
 1367              	.L144:
 992:Drivers/STM32F0xx_HAL_Driver/Src/stm32f0xx_hal_rcc.c ****   assert_param(IS_RCC_MCO1SOURCE(RCC_MCOSource));
 1368              		.loc 1 992 0 is_stmt 1
 1369 0048 002E     		cmp	r6, #0
 1370 004a 28D0     		beq	.L145
 1371              		.loc 1 992 0 is_stmt 0 discriminator 1
 1372 004c 8023     		movs	r3, #128
 1373 004e 9B04     		lsls	r3, r3, #18
 1374 0050 9E42     		cmp	r6, r3
 1375 0052 24D0     		beq	.L145
 1376              		.loc 1 992 0 discriminator 2
 1377 0054 C023     		movs	r3, #192
 1378 0056 9B04     		lsls	r3, r3, #18
 1379 0058 9E42     		cmp	r6, r3
 1380 005a 20D0     		beq	.L145
 1381              		.loc 1 992 0 discriminator 3
 1382 005c 8023     		movs	r3, #128
 1383 005e DB04     		lsls	r3, r3, #19
 1384 0060 9E42     		cmp	r6, r3
 1385 0062 1CD0     		beq	.L145
 1386              		.loc 1 992 0 discriminator 4
 1387 0064 A023     		movs	r3, #160
 1388 0066 DB04     		lsls	r3, r3, #19
ARM GAS  /tmp/ccVTF5Db.s 			page 44


 1389 0068 9E42     		cmp	r6, r3
 1390 006a 18D0     		beq	.L145
 1391              		.loc 1 992 0 discriminator 5
 1392 006c C023     		movs	r3, #192
 1393 006e DB04     		lsls	r3, r3, #19
 1394 0070 9E42     		cmp	r6, r3
 1395 0072 14D0     		beq	.L145
 1396              		.loc 1 992 0 discriminator 6
 1397 0074 8723     		movs	r3, #135
 1398 0076 1B06     		lsls	r3, r3, #24
 1399 0078 9E42     		cmp	r6, r3
 1400 007a 10D0     		beq	.L145
 1401              		.loc 1 992 0 discriminator 7
 1402 007c E023     		movs	r3, #224
 1403 007e DB04     		lsls	r3, r3, #19
 1404 0080 9E42     		cmp	r6, r3
 1405 0082 0CD0     		beq	.L145
 1406              		.loc 1 992 0 discriminator 8
 1407 0084 8023     		movs	r3, #128
 1408 0086 5B04     		lsls	r3, r3, #17
 1409 0088 9E42     		cmp	r6, r3
 1410 008a 08D0     		beq	.L145
 1411              		.loc 1 992 0 discriminator 9
 1412 008c 8023     		movs	r3, #128
 1413 008e 1B05     		lsls	r3, r3, #20
 1414 0090 9E42     		cmp	r6, r3
 1415 0092 04D0     		beq	.L145
 1416              		.loc 1 992 0 discriminator 10
 1417 0094 F821     		movs	r1, #248
 1418 0096 8900     		lsls	r1, r1, #2
 1419 0098 1648     		ldr	r0, .L148
 1420 009a FFF7FEFF 		bl	assert_failed
 1421              	.LVL96:
 1422              	.L145:
 993:Drivers/STM32F0xx_HAL_Driver/Src/stm32f0xx_hal_rcc.c ****   
 994:Drivers/STM32F0xx_HAL_Driver/Src/stm32f0xx_hal_rcc.c ****   /* Configure the MCO1 pin in alternate function mode */
 995:Drivers/STM32F0xx_HAL_Driver/Src/stm32f0xx_hal_rcc.c ****   gpio.Mode      = GPIO_MODE_AF_PP;
 1423              		.loc 1 995 0 is_stmt 1
 1424 009e 0223     		movs	r3, #2
 1425 00a0 0293     		str	r3, [sp, #8]
 996:Drivers/STM32F0xx_HAL_Driver/Src/stm32f0xx_hal_rcc.c ****   gpio.Speed     = GPIO_SPEED_FREQ_HIGH;
 1426              		.loc 1 996 0
 1427 00a2 0133     		adds	r3, r3, #1
 1428 00a4 0493     		str	r3, [sp, #16]
 997:Drivers/STM32F0xx_HAL_Driver/Src/stm32f0xx_hal_rcc.c ****   gpio.Pull      = GPIO_NOPULL;
 1429              		.loc 1 997 0
 1430 00a6 0023     		movs	r3, #0
 1431 00a8 0393     		str	r3, [sp, #12]
 998:Drivers/STM32F0xx_HAL_Driver/Src/stm32f0xx_hal_rcc.c ****   gpio.Pin       = MCO1_PIN;
 1432              		.loc 1 998 0
 1433 00aa 8022     		movs	r2, #128
 1434 00ac 5200     		lsls	r2, r2, #1
 1435 00ae 0192     		str	r2, [sp, #4]
 999:Drivers/STM32F0xx_HAL_Driver/Src/stm32f0xx_hal_rcc.c ****   gpio.Alternate = GPIO_AF0_MCO;
 1436              		.loc 1 999 0
 1437 00b0 0593     		str	r3, [sp, #20]
 1438              	.LBB5:
ARM GAS  /tmp/ccVTF5Db.s 			page 45


1000:Drivers/STM32F0xx_HAL_Driver/Src/stm32f0xx_hal_rcc.c **** 
1001:Drivers/STM32F0xx_HAL_Driver/Src/stm32f0xx_hal_rcc.c ****   /* MCO1 Clock Enable */
1002:Drivers/STM32F0xx_HAL_Driver/Src/stm32f0xx_hal_rcc.c ****   MCO1_CLK_ENABLE();
 1439              		.loc 1 1002 0
 1440 00b2 114D     		ldr	r5, .L148+4
 1441 00b4 6A69     		ldr	r2, [r5, #20]
 1442 00b6 8021     		movs	r1, #128
 1443 00b8 8902     		lsls	r1, r1, #10
 1444 00ba 0A43     		orrs	r2, r1
 1445 00bc 6A61     		str	r2, [r5, #20]
 1446 00be 6B69     		ldr	r3, [r5, #20]
 1447 00c0 0B40     		ands	r3, r1
 1448 00c2 0093     		str	r3, [sp]
 1449 00c4 009B     		ldr	r3, [sp]
 1450              	.LBE5:
1003:Drivers/STM32F0xx_HAL_Driver/Src/stm32f0xx_hal_rcc.c ****   
1004:Drivers/STM32F0xx_HAL_Driver/Src/stm32f0xx_hal_rcc.c ****   HAL_GPIO_Init(MCO1_GPIO_PORT, &gpio);
 1451              		.loc 1 1004 0
 1452 00c6 9020     		movs	r0, #144
 1453 00c8 01A9     		add	r1, sp, #4
 1454 00ca C005     		lsls	r0, r0, #23
 1455 00cc FFF7FEFF 		bl	HAL_GPIO_Init
 1456              	.LVL97:
1005:Drivers/STM32F0xx_HAL_Driver/Src/stm32f0xx_hal_rcc.c ****   
1006:Drivers/STM32F0xx_HAL_Driver/Src/stm32f0xx_hal_rcc.c ****   /* Configure the MCO clock source */
1007:Drivers/STM32F0xx_HAL_Driver/Src/stm32f0xx_hal_rcc.c ****   __HAL_RCC_MCO1_CONFIG(RCC_MCOSource, RCC_MCODiv);
 1457              		.loc 1 1007 0
 1458 00d0 6B68     		ldr	r3, [r5, #4]
 1459 00d2 0A4A     		ldr	r2, .L148+8
 1460 00d4 1340     		ands	r3, r2
 1461 00d6 3443     		orrs	r4, r6
 1462              	.LVL98:
 1463 00d8 1C43     		orrs	r4, r3
 1464 00da 6C60     		str	r4, [r5, #4]
1008:Drivers/STM32F0xx_HAL_Driver/Src/stm32f0xx_hal_rcc.c **** }
 1465              		.loc 1 1008 0
 1466 00dc 06B0     		add	sp, sp, #24
 1467              		@ sp needed
 1468              	.LVL99:
 1469 00de 70BD     		pop	{r4, r5, r6, pc}
 1470              	.LVL100:
 1471              	.L146:
 990:Drivers/STM32F0xx_HAL_Driver/Src/stm32f0xx_hal_rcc.c ****   assert_param(IS_RCC_MCODIV(RCC_MCODiv));
 1472              		.loc 1 990 0 discriminator 1
 1473 00e0 0749     		ldr	r1, .L148+12
 1474              	.LVL101:
 1475 00e2 0448     		ldr	r0, .L148
 1476              	.LVL102:
 1477 00e4 FFF7FEFF 		bl	assert_failed
 1478              	.LVL103:
 1479 00e8 90E7     		b	.L143
 1480              	.L147:
 991:Drivers/STM32F0xx_HAL_Driver/Src/stm32f0xx_hal_rcc.c ****   assert_param(IS_RCC_MCO1SOURCE(RCC_MCOSource));
 1481              		.loc 1 991 0 discriminator 8
 1482 00ea 0649     		ldr	r1, .L148+16
 1483 00ec 0148     		ldr	r0, .L148
 1484 00ee FFF7FEFF 		bl	assert_failed
ARM GAS  /tmp/ccVTF5Db.s 			page 46


 1485              	.LVL104:
 1486 00f2 A9E7     		b	.L144
 1487              	.L149:
 1488              		.align	2
 1489              	.L148:
 1490 00f4 00000000 		.word	.LC3
 1491 00f8 00100240 		.word	1073876992
 1492 00fc FFFFFF80 		.word	-2130706433
 1493 0100 DE030000 		.word	990
 1494 0104 DF030000 		.word	991
 1495              		.cfi_endproc
 1496              	.LFE40:
 1498              		.section	.text.HAL_RCC_EnableCSS,"ax",%progbits
 1499              		.align	1
 1500              		.global	HAL_RCC_EnableCSS
 1501              		.syntax unified
 1502              		.code	16
 1503              		.thumb_func
 1504              		.fpu softvfp
 1506              	HAL_RCC_EnableCSS:
 1507              	.LFB41:
1009:Drivers/STM32F0xx_HAL_Driver/Src/stm32f0xx_hal_rcc.c **** 
1010:Drivers/STM32F0xx_HAL_Driver/Src/stm32f0xx_hal_rcc.c **** /**
1011:Drivers/STM32F0xx_HAL_Driver/Src/stm32f0xx_hal_rcc.c ****   * @brief  Enables the Clock Security System.
1012:Drivers/STM32F0xx_HAL_Driver/Src/stm32f0xx_hal_rcc.c ****   * @note   If a failure is detected on the HSE oscillator clock, this oscillator
1013:Drivers/STM32F0xx_HAL_Driver/Src/stm32f0xx_hal_rcc.c ****   *         is automatically disabled and an interrupt is generated to inform the
1014:Drivers/STM32F0xx_HAL_Driver/Src/stm32f0xx_hal_rcc.c ****   *         software about the failure (Clock Security System Interrupt, CSSI),
1015:Drivers/STM32F0xx_HAL_Driver/Src/stm32f0xx_hal_rcc.c ****   *         allowing the MCU to perform rescue operations. The CSSI is linked to 
1016:Drivers/STM32F0xx_HAL_Driver/Src/stm32f0xx_hal_rcc.c ****   *         the Cortex-M0 NMI (Non-Maskable Interrupt) exception vector.  
1017:Drivers/STM32F0xx_HAL_Driver/Src/stm32f0xx_hal_rcc.c ****   * @retval None
1018:Drivers/STM32F0xx_HAL_Driver/Src/stm32f0xx_hal_rcc.c ****   */
1019:Drivers/STM32F0xx_HAL_Driver/Src/stm32f0xx_hal_rcc.c **** void HAL_RCC_EnableCSS(void)
1020:Drivers/STM32F0xx_HAL_Driver/Src/stm32f0xx_hal_rcc.c **** {
 1508              		.loc 1 1020 0
 1509              		.cfi_startproc
 1510              		@ args = 0, pretend = 0, frame = 0
 1511              		@ frame_needed = 0, uses_anonymous_args = 0
 1512              		@ link register save eliminated.
1021:Drivers/STM32F0xx_HAL_Driver/Src/stm32f0xx_hal_rcc.c ****   SET_BIT(RCC->CR, RCC_CR_CSSON) ;
 1513              		.loc 1 1021 0
 1514 0000 034A     		ldr	r2, .L151
 1515 0002 1168     		ldr	r1, [r2]
 1516 0004 8023     		movs	r3, #128
 1517 0006 1B03     		lsls	r3, r3, #12
 1518 0008 0B43     		orrs	r3, r1
 1519 000a 1360     		str	r3, [r2]
1022:Drivers/STM32F0xx_HAL_Driver/Src/stm32f0xx_hal_rcc.c **** }
 1520              		.loc 1 1022 0
 1521              		@ sp needed
 1522 000c 7047     		bx	lr
 1523              	.L152:
 1524 000e C046     		.align	2
 1525              	.L151:
 1526 0010 00100240 		.word	1073876992
 1527              		.cfi_endproc
 1528              	.LFE41:
 1530              		.section	.text.HAL_RCC_DisableCSS,"ax",%progbits
ARM GAS  /tmp/ccVTF5Db.s 			page 47


 1531              		.align	1
 1532              		.global	HAL_RCC_DisableCSS
 1533              		.syntax unified
 1534              		.code	16
 1535              		.thumb_func
 1536              		.fpu softvfp
 1538              	HAL_RCC_DisableCSS:
 1539              	.LFB42:
1023:Drivers/STM32F0xx_HAL_Driver/Src/stm32f0xx_hal_rcc.c **** 
1024:Drivers/STM32F0xx_HAL_Driver/Src/stm32f0xx_hal_rcc.c **** /**
1025:Drivers/STM32F0xx_HAL_Driver/Src/stm32f0xx_hal_rcc.c ****   * @brief  Disables the Clock Security System.
1026:Drivers/STM32F0xx_HAL_Driver/Src/stm32f0xx_hal_rcc.c ****   * @retval None
1027:Drivers/STM32F0xx_HAL_Driver/Src/stm32f0xx_hal_rcc.c ****   */
1028:Drivers/STM32F0xx_HAL_Driver/Src/stm32f0xx_hal_rcc.c **** void HAL_RCC_DisableCSS(void)
1029:Drivers/STM32F0xx_HAL_Driver/Src/stm32f0xx_hal_rcc.c **** {
 1540              		.loc 1 1029 0
 1541              		.cfi_startproc
 1542              		@ args = 0, pretend = 0, frame = 0
 1543              		@ frame_needed = 0, uses_anonymous_args = 0
 1544              		@ link register save eliminated.
1030:Drivers/STM32F0xx_HAL_Driver/Src/stm32f0xx_hal_rcc.c ****   CLEAR_BIT(RCC->CR, RCC_CR_CSSON) ;
 1545              		.loc 1 1030 0
 1546 0000 024A     		ldr	r2, .L154
 1547 0002 1368     		ldr	r3, [r2]
 1548 0004 0249     		ldr	r1, .L154+4
 1549 0006 0B40     		ands	r3, r1
 1550 0008 1360     		str	r3, [r2]
1031:Drivers/STM32F0xx_HAL_Driver/Src/stm32f0xx_hal_rcc.c **** }
 1551              		.loc 1 1031 0
 1552              		@ sp needed
 1553 000a 7047     		bx	lr
 1554              	.L155:
 1555              		.align	2
 1556              	.L154:
 1557 000c 00100240 		.word	1073876992
 1558 0010 FFFFF7FF 		.word	-524289
 1559              		.cfi_endproc
 1560              	.LFE42:
 1562              		.global	__aeabi_uidiv
 1563              		.section	.text.HAL_RCC_GetSysClockFreq,"ax",%progbits
 1564              		.align	1
 1565              		.global	HAL_RCC_GetSysClockFreq
 1566              		.syntax unified
 1567              		.code	16
 1568              		.thumb_func
 1569              		.fpu softvfp
 1571              	HAL_RCC_GetSysClockFreq:
 1572              	.LFB43:
1032:Drivers/STM32F0xx_HAL_Driver/Src/stm32f0xx_hal_rcc.c **** 
1033:Drivers/STM32F0xx_HAL_Driver/Src/stm32f0xx_hal_rcc.c **** /**
1034:Drivers/STM32F0xx_HAL_Driver/Src/stm32f0xx_hal_rcc.c ****   * @brief  Returns the SYSCLK frequency     
1035:Drivers/STM32F0xx_HAL_Driver/Src/stm32f0xx_hal_rcc.c ****   * @note   The system frequency computed by this function is not the real 
1036:Drivers/STM32F0xx_HAL_Driver/Src/stm32f0xx_hal_rcc.c ****   *         frequency in the chip. It is calculated based on the predefined 
1037:Drivers/STM32F0xx_HAL_Driver/Src/stm32f0xx_hal_rcc.c ****   *         constant and the selected clock source:
1038:Drivers/STM32F0xx_HAL_Driver/Src/stm32f0xx_hal_rcc.c ****   * @note     If SYSCLK source is HSI, function returns values based on HSI_VALUE(*)
1039:Drivers/STM32F0xx_HAL_Driver/Src/stm32f0xx_hal_rcc.c ****   * @note     If SYSCLK source is HSE, function returns a value based on HSE_VALUE
1040:Drivers/STM32F0xx_HAL_Driver/Src/stm32f0xx_hal_rcc.c ****   *           divided by PREDIV factor(**)
ARM GAS  /tmp/ccVTF5Db.s 			page 48


1041:Drivers/STM32F0xx_HAL_Driver/Src/stm32f0xx_hal_rcc.c ****   * @note     If SYSCLK source is PLL, function returns a value based on HSE_VALUE
1042:Drivers/STM32F0xx_HAL_Driver/Src/stm32f0xx_hal_rcc.c ****   *           divided by PREDIV factor(**) or depending on STM32F0xxxx devices either a value based
1043:Drivers/STM32F0xx_HAL_Driver/Src/stm32f0xx_hal_rcc.c ****   *           on HSI_VALUE divided by 2 or HSI_VALUE divided by PREDIV factor(*) multiplied by the 
1044:Drivers/STM32F0xx_HAL_Driver/Src/stm32f0xx_hal_rcc.c ****   *           PLL factor.
1045:Drivers/STM32F0xx_HAL_Driver/Src/stm32f0xx_hal_rcc.c ****   * @note     (*) HSI_VALUE is a constant defined in stm32f0xx_hal_conf.h file (default value
1046:Drivers/STM32F0xx_HAL_Driver/Src/stm32f0xx_hal_rcc.c ****   *               8 MHz) but the real value may vary depending on the variations
1047:Drivers/STM32F0xx_HAL_Driver/Src/stm32f0xx_hal_rcc.c ****   *               in voltage and temperature.
1048:Drivers/STM32F0xx_HAL_Driver/Src/stm32f0xx_hal_rcc.c ****   * @note     (**) HSE_VALUE is a constant defined in stm32f0xx_hal_conf.h file (default value
1049:Drivers/STM32F0xx_HAL_Driver/Src/stm32f0xx_hal_rcc.c ****   *                8 MHz), user has to ensure that HSE_VALUE is same as the real
1050:Drivers/STM32F0xx_HAL_Driver/Src/stm32f0xx_hal_rcc.c ****   *                frequency of the crystal used. Otherwise, this function may
1051:Drivers/STM32F0xx_HAL_Driver/Src/stm32f0xx_hal_rcc.c ****   *                have wrong result.
1052:Drivers/STM32F0xx_HAL_Driver/Src/stm32f0xx_hal_rcc.c ****   *                  
1053:Drivers/STM32F0xx_HAL_Driver/Src/stm32f0xx_hal_rcc.c ****   * @note   The result of this function could be not correct when using fractional
1054:Drivers/STM32F0xx_HAL_Driver/Src/stm32f0xx_hal_rcc.c ****   *         value for HSE crystal.
1055:Drivers/STM32F0xx_HAL_Driver/Src/stm32f0xx_hal_rcc.c ****   *           
1056:Drivers/STM32F0xx_HAL_Driver/Src/stm32f0xx_hal_rcc.c ****   * @note   This function can be used by the user application to compute the 
1057:Drivers/STM32F0xx_HAL_Driver/Src/stm32f0xx_hal_rcc.c ****   *         baud-rate for the communication peripherals or configure other parameters.
1058:Drivers/STM32F0xx_HAL_Driver/Src/stm32f0xx_hal_rcc.c ****   *           
1059:Drivers/STM32F0xx_HAL_Driver/Src/stm32f0xx_hal_rcc.c ****   * @note   Each time SYSCLK changes, this function must be called to update the
1060:Drivers/STM32F0xx_HAL_Driver/Src/stm32f0xx_hal_rcc.c ****   *         right SYSCLK value. Otherwise, any configuration based on this function will be incorre
1061:Drivers/STM32F0xx_HAL_Driver/Src/stm32f0xx_hal_rcc.c ****   *         
1062:Drivers/STM32F0xx_HAL_Driver/Src/stm32f0xx_hal_rcc.c ****   * @retval SYSCLK frequency
1063:Drivers/STM32F0xx_HAL_Driver/Src/stm32f0xx_hal_rcc.c ****   */
1064:Drivers/STM32F0xx_HAL_Driver/Src/stm32f0xx_hal_rcc.c **** uint32_t HAL_RCC_GetSysClockFreq(void)
1065:Drivers/STM32F0xx_HAL_Driver/Src/stm32f0xx_hal_rcc.c **** {
 1573              		.loc 1 1065 0
 1574              		.cfi_startproc
 1575              		@ args = 0, pretend = 0, frame = 32
 1576              		@ frame_needed = 0, uses_anonymous_args = 0
 1577 0000 30B5     		push	{r4, r5, lr}
 1578              	.LCFI4:
 1579              		.cfi_def_cfa_offset 12
 1580              		.cfi_offset 4, -12
 1581              		.cfi_offset 5, -8
 1582              		.cfi_offset 14, -4
 1583 0002 89B0     		sub	sp, sp, #36
 1584              	.LCFI5:
 1585              		.cfi_def_cfa_offset 48
1066:Drivers/STM32F0xx_HAL_Driver/Src/stm32f0xx_hal_rcc.c ****   const uint8_t aPLLMULFactorTable[16] = { 2U,  3U,  4U,  5U,  6U,  7U,  8U,  9U,
 1586              		.loc 1 1066 0
 1587 0004 04AA     		add	r2, sp, #16
 1588 0006 1F4B     		ldr	r3, .L165
 1589 0008 1800     		movs	r0, r3
 1590 000a 32C8     		ldmia	r0!, {r1, r4, r5}
 1591 000c 32C2     		stmia	r2!, {r1, r4, r5}
 1592 000e 1100     		movs	r1, r2
 1593 0010 0268     		ldr	r2, [r0]
 1594 0012 0A60     		str	r2, [r1]
1067:Drivers/STM32F0xx_HAL_Driver/Src/stm32f0xx_hal_rcc.c ****                                          10U, 11U, 12U, 13U, 14U, 15U, 16U, 16U};
1068:Drivers/STM32F0xx_HAL_Driver/Src/stm32f0xx_hal_rcc.c ****   const uint8_t aPredivFactorTable[16] = { 1U, 2U,  3U,  4U,  5U,  6U,  7U,  8U,
 1595              		.loc 1 1068 0
 1596 0014 6A46     		mov	r2, sp
 1597 0016 1033     		adds	r3, r3, #16
 1598 0018 13CB     		ldmia	r3!, {r0, r1, r4}
 1599 001a 13C2     		stmia	r2!, {r0, r1, r4}
 1600 001c 1B68     		ldr	r3, [r3]
 1601 001e 1360     		str	r3, [r2]
ARM GAS  /tmp/ccVTF5Db.s 			page 49


 1602              	.LVL105:
1069:Drivers/STM32F0xx_HAL_Driver/Src/stm32f0xx_hal_rcc.c ****                                            9U,10U, 11U, 12U, 13U, 14U, 15U, 16U};
1070:Drivers/STM32F0xx_HAL_Driver/Src/stm32f0xx_hal_rcc.c **** 
1071:Drivers/STM32F0xx_HAL_Driver/Src/stm32f0xx_hal_rcc.c ****   uint32_t tmpreg = 0U, prediv = 0U, pllclk = 0U, pllmul = 0U;
1072:Drivers/STM32F0xx_HAL_Driver/Src/stm32f0xx_hal_rcc.c ****   uint32_t sysclockfreq = 0U;
1073:Drivers/STM32F0xx_HAL_Driver/Src/stm32f0xx_hal_rcc.c ****   
1074:Drivers/STM32F0xx_HAL_Driver/Src/stm32f0xx_hal_rcc.c ****   tmpreg = RCC->CFGR;
 1603              		.loc 1 1074 0
 1604 0020 194B     		ldr	r3, .L165+4
 1605 0022 5A68     		ldr	r2, [r3, #4]
 1606              	.LVL106:
1075:Drivers/STM32F0xx_HAL_Driver/Src/stm32f0xx_hal_rcc.c ****   
1076:Drivers/STM32F0xx_HAL_Driver/Src/stm32f0xx_hal_rcc.c ****   /* Get SYSCLK source -------------------------------------------------------*/
1077:Drivers/STM32F0xx_HAL_Driver/Src/stm32f0xx_hal_rcc.c ****   switch (tmpreg & RCC_CFGR_SWS)
 1607              		.loc 1 1077 0
 1608 0024 0C23     		movs	r3, #12
 1609 0026 1340     		ands	r3, r2
 1610 0028 082B     		cmp	r3, #8
 1611 002a 04D0     		beq	.L158
 1612 002c 0C2B     		cmp	r3, #12
 1613 002e 26D0     		beq	.L162
1078:Drivers/STM32F0xx_HAL_Driver/Src/stm32f0xx_hal_rcc.c ****   {
1079:Drivers/STM32F0xx_HAL_Driver/Src/stm32f0xx_hal_rcc.c ****     case RCC_SYSCLKSOURCE_STATUS_HSE:  /* HSE used as system clock */
1080:Drivers/STM32F0xx_HAL_Driver/Src/stm32f0xx_hal_rcc.c ****     {
1081:Drivers/STM32F0xx_HAL_Driver/Src/stm32f0xx_hal_rcc.c ****       sysclockfreq = HSE_VALUE;
 1614              		.loc 1 1081 0
 1615 0030 1648     		ldr	r0, .L165+8
 1616              	.LVL107:
 1617              	.L156:
1082:Drivers/STM32F0xx_HAL_Driver/Src/stm32f0xx_hal_rcc.c ****       break;
1083:Drivers/STM32F0xx_HAL_Driver/Src/stm32f0xx_hal_rcc.c ****     }
1084:Drivers/STM32F0xx_HAL_Driver/Src/stm32f0xx_hal_rcc.c ****     case RCC_SYSCLKSOURCE_STATUS_PLLCLK:  /* PLL used as system clock */
1085:Drivers/STM32F0xx_HAL_Driver/Src/stm32f0xx_hal_rcc.c ****     {
1086:Drivers/STM32F0xx_HAL_Driver/Src/stm32f0xx_hal_rcc.c ****       pllmul = aPLLMULFactorTable[(uint32_t)(tmpreg & RCC_CFGR_PLLMUL) >> RCC_CFGR_PLLMUL_BITNUMBER
1087:Drivers/STM32F0xx_HAL_Driver/Src/stm32f0xx_hal_rcc.c ****       prediv = aPredivFactorTable[(uint32_t)(RCC->CFGR2 & RCC_CFGR2_PREDIV) >> RCC_CFGR2_PREDIV_BIT
1088:Drivers/STM32F0xx_HAL_Driver/Src/stm32f0xx_hal_rcc.c ****       if ((tmpreg & RCC_CFGR_PLLSRC) == RCC_PLLSOURCE_HSE)
1089:Drivers/STM32F0xx_HAL_Driver/Src/stm32f0xx_hal_rcc.c ****       {
1090:Drivers/STM32F0xx_HAL_Driver/Src/stm32f0xx_hal_rcc.c ****         /* HSE used as PLL clock source : PLLCLK = HSE/PREDIV * PLLMUL */
1091:Drivers/STM32F0xx_HAL_Driver/Src/stm32f0xx_hal_rcc.c ****         pllclk = (HSE_VALUE / prediv) * pllmul;
1092:Drivers/STM32F0xx_HAL_Driver/Src/stm32f0xx_hal_rcc.c ****       }
1093:Drivers/STM32F0xx_HAL_Driver/Src/stm32f0xx_hal_rcc.c **** #if defined(RCC_CFGR_PLLSRC_HSI48_PREDIV)
1094:Drivers/STM32F0xx_HAL_Driver/Src/stm32f0xx_hal_rcc.c ****       else if ((tmpreg & RCC_CFGR_PLLSRC) == RCC_PLLSOURCE_HSI48)
1095:Drivers/STM32F0xx_HAL_Driver/Src/stm32f0xx_hal_rcc.c ****       {
1096:Drivers/STM32F0xx_HAL_Driver/Src/stm32f0xx_hal_rcc.c ****         /* HSI48 used as PLL clock source : PLLCLK = HSI48/PREDIV * PLLMUL */
1097:Drivers/STM32F0xx_HAL_Driver/Src/stm32f0xx_hal_rcc.c ****         pllclk = (HSI48_VALUE / prediv) * pllmul;
1098:Drivers/STM32F0xx_HAL_Driver/Src/stm32f0xx_hal_rcc.c ****       }
1099:Drivers/STM32F0xx_HAL_Driver/Src/stm32f0xx_hal_rcc.c **** #endif /* RCC_CFGR_PLLSRC_HSI48_PREDIV */
1100:Drivers/STM32F0xx_HAL_Driver/Src/stm32f0xx_hal_rcc.c ****       else
1101:Drivers/STM32F0xx_HAL_Driver/Src/stm32f0xx_hal_rcc.c ****       {
1102:Drivers/STM32F0xx_HAL_Driver/Src/stm32f0xx_hal_rcc.c **** #if  (defined(STM32F042x6) || defined(STM32F048xx) || defined(STM32F070x6) || defined(STM32F071xB) 
1103:Drivers/STM32F0xx_HAL_Driver/Src/stm32f0xx_hal_rcc.c ****         /* HSI used as PLL clock source : PLLCLK = HSI/PREDIV * PLLMUL */
1104:Drivers/STM32F0xx_HAL_Driver/Src/stm32f0xx_hal_rcc.c ****         pllclk = (HSI_VALUE / prediv) * pllmul;
1105:Drivers/STM32F0xx_HAL_Driver/Src/stm32f0xx_hal_rcc.c **** #else
1106:Drivers/STM32F0xx_HAL_Driver/Src/stm32f0xx_hal_rcc.c ****         /* HSI used as PLL clock source : PLLCLK = HSI/2 * PLLMUL */
1107:Drivers/STM32F0xx_HAL_Driver/Src/stm32f0xx_hal_rcc.c ****         pllclk = (uint32_t)((HSI_VALUE >> 1U) * pllmul);
1108:Drivers/STM32F0xx_HAL_Driver/Src/stm32f0xx_hal_rcc.c **** #endif
1109:Drivers/STM32F0xx_HAL_Driver/Src/stm32f0xx_hal_rcc.c ****       }
ARM GAS  /tmp/ccVTF5Db.s 			page 50


1110:Drivers/STM32F0xx_HAL_Driver/Src/stm32f0xx_hal_rcc.c ****       sysclockfreq = pllclk;
1111:Drivers/STM32F0xx_HAL_Driver/Src/stm32f0xx_hal_rcc.c ****       break;
1112:Drivers/STM32F0xx_HAL_Driver/Src/stm32f0xx_hal_rcc.c ****     }
1113:Drivers/STM32F0xx_HAL_Driver/Src/stm32f0xx_hal_rcc.c **** #if defined(RCC_CFGR_SWS_HSI48)
1114:Drivers/STM32F0xx_HAL_Driver/Src/stm32f0xx_hal_rcc.c ****     case RCC_SYSCLKSOURCE_STATUS_HSI48:    /* HSI48 used as system clock source */
1115:Drivers/STM32F0xx_HAL_Driver/Src/stm32f0xx_hal_rcc.c ****     {
1116:Drivers/STM32F0xx_HAL_Driver/Src/stm32f0xx_hal_rcc.c ****       sysclockfreq = HSI48_VALUE;
1117:Drivers/STM32F0xx_HAL_Driver/Src/stm32f0xx_hal_rcc.c ****       break;
1118:Drivers/STM32F0xx_HAL_Driver/Src/stm32f0xx_hal_rcc.c ****     }
1119:Drivers/STM32F0xx_HAL_Driver/Src/stm32f0xx_hal_rcc.c **** #endif /* RCC_CFGR_SWS_HSI48 */
1120:Drivers/STM32F0xx_HAL_Driver/Src/stm32f0xx_hal_rcc.c ****     case RCC_SYSCLKSOURCE_STATUS_HSI:  /* HSI used as system clock source */
1121:Drivers/STM32F0xx_HAL_Driver/Src/stm32f0xx_hal_rcc.c ****     default: /* HSI used as system clock */
1122:Drivers/STM32F0xx_HAL_Driver/Src/stm32f0xx_hal_rcc.c ****     {
1123:Drivers/STM32F0xx_HAL_Driver/Src/stm32f0xx_hal_rcc.c ****       sysclockfreq = HSI_VALUE;
1124:Drivers/STM32F0xx_HAL_Driver/Src/stm32f0xx_hal_rcc.c ****       break;
1125:Drivers/STM32F0xx_HAL_Driver/Src/stm32f0xx_hal_rcc.c ****     }
1126:Drivers/STM32F0xx_HAL_Driver/Src/stm32f0xx_hal_rcc.c ****   }
1127:Drivers/STM32F0xx_HAL_Driver/Src/stm32f0xx_hal_rcc.c ****   return sysclockfreq;
1128:Drivers/STM32F0xx_HAL_Driver/Src/stm32f0xx_hal_rcc.c **** }
 1618              		.loc 1 1128 0
 1619 0032 09B0     		add	sp, sp, #36
 1620              		@ sp needed
 1621 0034 30BD     		pop	{r4, r5, pc}
 1622              	.LVL108:
 1623              	.L158:
1086:Drivers/STM32F0xx_HAL_Driver/Src/stm32f0xx_hal_rcc.c ****       prediv = aPredivFactorTable[(uint32_t)(RCC->CFGR2 & RCC_CFGR2_PREDIV) >> RCC_CFGR2_PREDIV_BIT
 1624              		.loc 1 1086 0
 1625 0036 910C     		lsrs	r1, r2, #18
 1626 0038 0F23     		movs	r3, #15
 1627 003a 1940     		ands	r1, r3
 1628 003c 04A8     		add	r0, sp, #16
 1629 003e 445C     		ldrb	r4, [r0, r1]
 1630              	.LVL109:
1087:Drivers/STM32F0xx_HAL_Driver/Src/stm32f0xx_hal_rcc.c ****       if ((tmpreg & RCC_CFGR_PLLSRC) == RCC_PLLSOURCE_HSE)
 1631              		.loc 1 1087 0
 1632 0040 1149     		ldr	r1, .L165+4
 1633 0042 C96A     		ldr	r1, [r1, #44]
 1634 0044 0B40     		ands	r3, r1
 1635 0046 6946     		mov	r1, sp
 1636 0048 C95C     		ldrb	r1, [r1, r3]
 1637              	.LVL110:
1088:Drivers/STM32F0xx_HAL_Driver/Src/stm32f0xx_hal_rcc.c ****       {
 1638              		.loc 1 1088 0
 1639 004a C023     		movs	r3, #192
 1640 004c 5B02     		lsls	r3, r3, #9
 1641 004e 1A40     		ands	r2, r3
 1642              	.LVL111:
 1643 0050 8023     		movs	r3, #128
 1644 0052 5B02     		lsls	r3, r3, #9
 1645 0054 9A42     		cmp	r2, r3
 1646 0056 08D0     		beq	.L163
1094:Drivers/STM32F0xx_HAL_Driver/Src/stm32f0xx_hal_rcc.c ****       {
 1647              		.loc 1 1094 0
 1648 0058 C023     		movs	r3, #192
 1649 005a 5B02     		lsls	r3, r3, #9
 1650 005c 9A42     		cmp	r2, r3
 1651 005e 09D0     		beq	.L164
ARM GAS  /tmp/ccVTF5Db.s 			page 51


1104:Drivers/STM32F0xx_HAL_Driver/Src/stm32f0xx_hal_rcc.c **** #else
 1652              		.loc 1 1104 0
 1653 0060 0A48     		ldr	r0, .L165+8
 1654 0062 FFF7FEFF 		bl	__aeabi_uidiv
 1655              	.LVL112:
 1656 0066 6043     		muls	r0, r4
 1657              	.LVL113:
 1658 0068 E3E7     		b	.L156
 1659              	.LVL114:
 1660              	.L163:
1091:Drivers/STM32F0xx_HAL_Driver/Src/stm32f0xx_hal_rcc.c ****       }
 1661              		.loc 1 1091 0
 1662 006a 0848     		ldr	r0, .L165+8
 1663 006c FFF7FEFF 		bl	__aeabi_uidiv
 1664              	.LVL115:
 1665 0070 6043     		muls	r0, r4
 1666              	.LVL116:
 1667 0072 DEE7     		b	.L156
 1668              	.LVL117:
 1669              	.L164:
1097:Drivers/STM32F0xx_HAL_Driver/Src/stm32f0xx_hal_rcc.c ****       }
 1670              		.loc 1 1097 0
 1671 0074 0648     		ldr	r0, .L165+12
 1672 0076 FFF7FEFF 		bl	__aeabi_uidiv
 1673              	.LVL118:
 1674 007a 6043     		muls	r0, r4
 1675              	.LVL119:
 1676 007c D9E7     		b	.L156
 1677              	.LVL120:
 1678              	.L162:
1116:Drivers/STM32F0xx_HAL_Driver/Src/stm32f0xx_hal_rcc.c ****       break;
 1679              		.loc 1 1116 0
 1680 007e 0448     		ldr	r0, .L165+12
 1681              	.LVL121:
1127:Drivers/STM32F0xx_HAL_Driver/Src/stm32f0xx_hal_rcc.c **** }
 1682              		.loc 1 1127 0
 1683 0080 D7E7     		b	.L156
 1684              	.L166:
 1685 0082 C046     		.align	2
 1686              	.L165:
 1687 0084 00000000 		.word	.LANCHOR0
 1688 0088 00100240 		.word	1073876992
 1689 008c 00127A00 		.word	8000000
 1690 0090 006CDC02 		.word	48000000
 1691              		.cfi_endproc
 1692              	.LFE43:
 1694              		.section	.text.HAL_RCC_ClockConfig,"ax",%progbits
 1695              		.align	1
 1696              		.global	HAL_RCC_ClockConfig
 1697              		.syntax unified
 1698              		.code	16
 1699              		.thumb_func
 1700              		.fpu softvfp
 1702              	HAL_RCC_ClockConfig:
 1703              	.LFB39:
 726:Drivers/STM32F0xx_HAL_Driver/Src/stm32f0xx_hal_rcc.c ****   uint32_t tickstart = 0U;
 1704              		.loc 1 726 0
ARM GAS  /tmp/ccVTF5Db.s 			page 52


 1705              		.cfi_startproc
 1706              		@ args = 0, pretend = 0, frame = 0
 1707              		@ frame_needed = 0, uses_anonymous_args = 0
 1708              	.LVL122:
 1709 0000 70B5     		push	{r4, r5, r6, lr}
 1710              	.LCFI6:
 1711              		.cfi_def_cfa_offset 16
 1712              		.cfi_offset 4, -16
 1713              		.cfi_offset 5, -12
 1714              		.cfi_offset 6, -8
 1715              		.cfi_offset 14, -4
 1716 0002 0400     		movs	r4, r0
 1717 0004 0D00     		movs	r5, r1
 1718              	.LVL123:
 730:Drivers/STM32F0xx_HAL_Driver/Src/stm32f0xx_hal_rcc.c ****   assert_param(IS_RCC_CLOCKTYPE(RCC_ClkInitStruct->ClockType));
 1719              		.loc 1 730 0
 1720 0006 0028     		cmp	r0, #0
 1721 0008 16D0     		beq	.L206
 1722              	.LVL124:
 1723              	.L168:
 731:Drivers/STM32F0xx_HAL_Driver/Src/stm32f0xx_hal_rcc.c ****   assert_param(IS_FLASH_LATENCY(FLatency));
 1724              		.loc 1 731 0
 1725 000a 2368     		ldr	r3, [r4]
 1726 000c 5B07     		lsls	r3, r3, #29
 1727 000e 18D0     		beq	.L207
 1728              	.L169:
 732:Drivers/STM32F0xx_HAL_Driver/Src/stm32f0xx_hal_rcc.c **** 
 1729              		.loc 1 732 0
 1730 0010 012D     		cmp	r5, #1
 1731 0012 1BD8     		bhi	.L208
 1732              	.L170:
 739:Drivers/STM32F0xx_HAL_Driver/Src/stm32f0xx_hal_rcc.c ****   {    
 1733              		.loc 1 739 0
 1734 0014 7D4B     		ldr	r3, .L216
 1735 0016 1A68     		ldr	r2, [r3]
 1736 0018 0123     		movs	r3, #1
 1737 001a 1340     		ands	r3, r2
 1738 001c AB42     		cmp	r3, r5
 1739 001e 1BD2     		bcs	.L171
 742:Drivers/STM32F0xx_HAL_Driver/Src/stm32f0xx_hal_rcc.c ****     
 1740              		.loc 1 742 0
 1741 0020 7A49     		ldr	r1, .L216
 1742 0022 0B68     		ldr	r3, [r1]
 1743 0024 0122     		movs	r2, #1
 1744 0026 9343     		bics	r3, r2
 1745 0028 2B43     		orrs	r3, r5
 1746 002a 0B60     		str	r3, [r1]
 746:Drivers/STM32F0xx_HAL_Driver/Src/stm32f0xx_hal_rcc.c ****     {
 1747              		.loc 1 746 0
 1748 002c 0B68     		ldr	r3, [r1]
 1749 002e 1A40     		ands	r2, r3
 1750 0030 AA42     		cmp	r2, r5
 1751 0032 11D0     		beq	.L171
 748:Drivers/STM32F0xx_HAL_Driver/Src/stm32f0xx_hal_rcc.c ****     }
 1752              		.loc 1 748 0
 1753 0034 0120     		movs	r0, #1
 1754              	.LVL125:
ARM GAS  /tmp/ccVTF5Db.s 			page 53


 1755              	.L172:
 878:Drivers/STM32F0xx_HAL_Driver/Src/stm32f0xx_hal_rcc.c **** 
 1756              		.loc 1 878 0
 1757              		@ sp needed
 1758              	.LVL126:
 1759              	.LVL127:
 1760 0036 70BD     		pop	{r4, r5, r6, pc}
 1761              	.LVL128:
 1762              	.L206:
 730:Drivers/STM32F0xx_HAL_Driver/Src/stm32f0xx_hal_rcc.c ****   assert_param(IS_RCC_CLOCKTYPE(RCC_ClkInitStruct->ClockType));
 1763              		.loc 1 730 0 discriminator 1
 1764 0038 7549     		ldr	r1, .L216+4
 1765              	.LVL129:
 1766 003a 7648     		ldr	r0, .L216+8
 1767              	.LVL130:
 1768 003c FFF7FEFF 		bl	assert_failed
 1769              	.LVL131:
 1770 0040 E3E7     		b	.L168
 1771              	.L207:
 731:Drivers/STM32F0xx_HAL_Driver/Src/stm32f0xx_hal_rcc.c ****   assert_param(IS_FLASH_LATENCY(FLatency));
 1772              		.loc 1 731 0 discriminator 1
 1773 0042 7549     		ldr	r1, .L216+12
 1774 0044 7348     		ldr	r0, .L216+8
 1775 0046 FFF7FEFF 		bl	assert_failed
 1776              	.LVL132:
 1777 004a E1E7     		b	.L169
 1778              	.L208:
 732:Drivers/STM32F0xx_HAL_Driver/Src/stm32f0xx_hal_rcc.c **** 
 1779              		.loc 1 732 0 discriminator 1
 1780 004c B721     		movs	r1, #183
 1781 004e 8900     		lsls	r1, r1, #2
 1782 0050 7048     		ldr	r0, .L216+8
 1783 0052 FFF7FEFF 		bl	assert_failed
 1784              	.LVL133:
 1785 0056 DDE7     		b	.L170
 1786              	.L171:
 753:Drivers/STM32F0xx_HAL_Driver/Src/stm32f0xx_hal_rcc.c ****   {
 1787              		.loc 1 753 0
 1788 0058 2368     		ldr	r3, [r4]
 1789 005a 9B07     		lsls	r3, r3, #30
 1790 005c 19D5     		bpl	.L173
 755:Drivers/STM32F0xx_HAL_Driver/Src/stm32f0xx_hal_rcc.c ****     MODIFY_REG(RCC->CFGR, RCC_CFGR_HPRE, RCC_ClkInitStruct->AHBCLKDivider);
 1791              		.loc 1 755 0
 1792 005e A368     		ldr	r3, [r4, #8]
 1793 0060 002B     		cmp	r3, #0
 1794 0062 0FD0     		beq	.L174
 755:Drivers/STM32F0xx_HAL_Driver/Src/stm32f0xx_hal_rcc.c ****     MODIFY_REG(RCC->CFGR, RCC_CFGR_HPRE, RCC_ClkInitStruct->AHBCLKDivider);
 1795              		.loc 1 755 0 is_stmt 0 discriminator 1
 1796 0064 802B     		cmp	r3, #128
 1797 0066 0DD0     		beq	.L174
 755:Drivers/STM32F0xx_HAL_Driver/Src/stm32f0xx_hal_rcc.c ****     MODIFY_REG(RCC->CFGR, RCC_CFGR_HPRE, RCC_ClkInitStruct->AHBCLKDivider);
 1798              		.loc 1 755 0 discriminator 2
 1799 0068 902B     		cmp	r3, #144
 1800 006a 0BD0     		beq	.L174
 755:Drivers/STM32F0xx_HAL_Driver/Src/stm32f0xx_hal_rcc.c ****     MODIFY_REG(RCC->CFGR, RCC_CFGR_HPRE, RCC_ClkInitStruct->AHBCLKDivider);
 1801              		.loc 1 755 0 discriminator 3
 1802 006c A02B     		cmp	r3, #160
ARM GAS  /tmp/ccVTF5Db.s 			page 54


 1803 006e 09D0     		beq	.L174
 755:Drivers/STM32F0xx_HAL_Driver/Src/stm32f0xx_hal_rcc.c ****     MODIFY_REG(RCC->CFGR, RCC_CFGR_HPRE, RCC_ClkInitStruct->AHBCLKDivider);
 1804              		.loc 1 755 0 discriminator 4
 1805 0070 B02B     		cmp	r3, #176
 1806 0072 07D0     		beq	.L174
 755:Drivers/STM32F0xx_HAL_Driver/Src/stm32f0xx_hal_rcc.c ****     MODIFY_REG(RCC->CFGR, RCC_CFGR_HPRE, RCC_ClkInitStruct->AHBCLKDivider);
 1807              		.loc 1 755 0 discriminator 5
 1808 0074 C02B     		cmp	r3, #192
 1809 0076 05D0     		beq	.L174
 755:Drivers/STM32F0xx_HAL_Driver/Src/stm32f0xx_hal_rcc.c ****     MODIFY_REG(RCC->CFGR, RCC_CFGR_HPRE, RCC_ClkInitStruct->AHBCLKDivider);
 1810              		.loc 1 755 0 discriminator 6
 1811 0078 D02B     		cmp	r3, #208
 1812 007a 03D0     		beq	.L174
 755:Drivers/STM32F0xx_HAL_Driver/Src/stm32f0xx_hal_rcc.c ****     MODIFY_REG(RCC->CFGR, RCC_CFGR_HPRE, RCC_ClkInitStruct->AHBCLKDivider);
 1813              		.loc 1 755 0 discriminator 7
 1814 007c E02B     		cmp	r3, #224
 1815 007e 01D0     		beq	.L174
 755:Drivers/STM32F0xx_HAL_Driver/Src/stm32f0xx_hal_rcc.c ****     MODIFY_REG(RCC->CFGR, RCC_CFGR_HPRE, RCC_ClkInitStruct->AHBCLKDivider);
 1816              		.loc 1 755 0 discriminator 8
 1817 0080 F02B     		cmp	r3, #240
 1818 0082 19D1     		bne	.L209
 1819              	.L174:
 756:Drivers/STM32F0xx_HAL_Driver/Src/stm32f0xx_hal_rcc.c ****   }
 1820              		.loc 1 756 0 is_stmt 1
 1821 0084 654A     		ldr	r2, .L216+16
 1822 0086 5368     		ldr	r3, [r2, #4]
 1823 0088 F021     		movs	r1, #240
 1824 008a 8B43     		bics	r3, r1
 1825 008c A168     		ldr	r1, [r4, #8]
 1826 008e 0B43     		orrs	r3, r1
 1827 0090 5360     		str	r3, [r2, #4]
 1828              	.L173:
 760:Drivers/STM32F0xx_HAL_Driver/Src/stm32f0xx_hal_rcc.c ****   {    
 1829              		.loc 1 760 0
 1830 0092 2368     		ldr	r3, [r4]
 1831 0094 DB07     		lsls	r3, r3, #31
 1832 0096 71D5     		bpl	.L175
 762:Drivers/STM32F0xx_HAL_Driver/Src/stm32f0xx_hal_rcc.c ****     
 1833              		.loc 1 762 0
 1834 0098 6368     		ldr	r3, [r4, #4]
 1835 009a 032B     		cmp	r3, #3
 1836 009c 11D8     		bhi	.L210
 1837              	.L176:
 765:Drivers/STM32F0xx_HAL_Driver/Src/stm32f0xx_hal_rcc.c ****     {
 1838              		.loc 1 765 0
 1839 009e 6368     		ldr	r3, [r4, #4]
 1840 00a0 012B     		cmp	r3, #1
 1841 00a2 13D0     		beq	.L211
 774:Drivers/STM32F0xx_HAL_Driver/Src/stm32f0xx_hal_rcc.c ****     {
 1842              		.loc 1 774 0
 1843 00a4 022B     		cmp	r3, #2
 1844 00a6 33D0     		beq	.L212
 784:Drivers/STM32F0xx_HAL_Driver/Src/stm32f0xx_hal_rcc.c ****     {
 1845              		.loc 1 784 0
 1846 00a8 032B     		cmp	r3, #3
 1847 00aa 37D0     		beq	.L213
 797:Drivers/STM32F0xx_HAL_Driver/Src/stm32f0xx_hal_rcc.c ****       {
ARM GAS  /tmp/ccVTF5Db.s 			page 55


 1848              		.loc 1 797 0
 1849 00ac 5B4A     		ldr	r2, .L216+16
 1850 00ae 1268     		ldr	r2, [r2]
 1851 00b0 9207     		lsls	r2, r2, #30
 1852 00b2 10D4     		bmi	.L178
 799:Drivers/STM32F0xx_HAL_Driver/Src/stm32f0xx_hal_rcc.c ****       }
 1853              		.loc 1 799 0
 1854 00b4 0120     		movs	r0, #1
 1855 00b6 BEE7     		b	.L172
 1856              	.L209:
 755:Drivers/STM32F0xx_HAL_Driver/Src/stm32f0xx_hal_rcc.c ****     MODIFY_REG(RCC->CFGR, RCC_CFGR_HPRE, RCC_ClkInitStruct->AHBCLKDivider);
 1857              		.loc 1 755 0 discriminator 9
 1858 00b8 5949     		ldr	r1, .L216+20
 1859 00ba 5648     		ldr	r0, .L216+8
 1860 00bc FFF7FEFF 		bl	assert_failed
 1861              	.LVL134:
 1862 00c0 E0E7     		b	.L174
 1863              	.L210:
 762:Drivers/STM32F0xx_HAL_Driver/Src/stm32f0xx_hal_rcc.c ****     
 1864              		.loc 1 762 0 discriminator 1
 1865 00c2 5849     		ldr	r1, .L216+24
 1866 00c4 5348     		ldr	r0, .L216+8
 1867 00c6 FFF7FEFF 		bl	assert_failed
 1868              	.LVL135:
 1869 00ca E8E7     		b	.L176
 1870              	.L211:
 768:Drivers/STM32F0xx_HAL_Driver/Src/stm32f0xx_hal_rcc.c ****       {
 1871              		.loc 1 768 0
 1872 00cc 534A     		ldr	r2, .L216+16
 1873 00ce 1268     		ldr	r2, [r2]
 1874 00d0 9203     		lsls	r2, r2, #14
 1875 00d2 00D4     		bmi	.LCB1866
 1876 00d4 97E0     		b	.L214	@long jump
 1877              	.LCB1866:
 1878              	.L178:
 802:Drivers/STM32F0xx_HAL_Driver/Src/stm32f0xx_hal_rcc.c **** 
 1879              		.loc 1 802 0
 1880 00d6 5149     		ldr	r1, .L216+16
 1881 00d8 4A68     		ldr	r2, [r1, #4]
 1882 00da 0320     		movs	r0, #3
 1883 00dc 8243     		bics	r2, r0
 1884 00de 1343     		orrs	r3, r2
 1885 00e0 4B60     		str	r3, [r1, #4]
 805:Drivers/STM32F0xx_HAL_Driver/Src/stm32f0xx_hal_rcc.c ****     
 1886              		.loc 1 805 0
 1887 00e2 FFF7FEFF 		bl	HAL_GetTick
 1888              	.LVL136:
 1889 00e6 0600     		movs	r6, r0
 1890              	.LVL137:
 807:Drivers/STM32F0xx_HAL_Driver/Src/stm32f0xx_hal_rcc.c ****     {
 1891              		.loc 1 807 0
 1892 00e8 6368     		ldr	r3, [r4, #4]
 1893 00ea 012B     		cmp	r3, #1
 1894 00ec 1CD0     		beq	.L181
 817:Drivers/STM32F0xx_HAL_Driver/Src/stm32f0xx_hal_rcc.c ****     {
 1895              		.loc 1 817 0
 1896 00ee 022B     		cmp	r3, #2
ARM GAS  /tmp/ccVTF5Db.s 			page 56


 1897 00f0 28D0     		beq	.L184
 828:Drivers/STM32F0xx_HAL_Driver/Src/stm32f0xx_hal_rcc.c ****     {
 1898              		.loc 1 828 0
 1899 00f2 032B     		cmp	r3, #3
 1900 00f4 34D0     		beq	.L187
 1901              	.LVL138:
 1902              	.L188:
 841:Drivers/STM32F0xx_HAL_Driver/Src/stm32f0xx_hal_rcc.c ****       {
 1903              		.loc 1 841 0
 1904 00f6 494B     		ldr	r3, .L216+16
 1905 00f8 5B68     		ldr	r3, [r3, #4]
 1906 00fa 0C22     		movs	r2, #12
 1907 00fc 1A42     		tst	r2, r3
 1908 00fe 3DD0     		beq	.L175
 843:Drivers/STM32F0xx_HAL_Driver/Src/stm32f0xx_hal_rcc.c ****         {
 1909              		.loc 1 843 0
 1910 0100 FFF7FEFF 		bl	HAL_GetTick
 1911              	.LVL139:
 1912 0104 801B     		subs	r0, r0, r6
 1913 0106 484B     		ldr	r3, .L216+28
 1914 0108 9842     		cmp	r0, r3
 1915 010a F4D9     		bls	.L188
 845:Drivers/STM32F0xx_HAL_Driver/Src/stm32f0xx_hal_rcc.c ****         }
 1916              		.loc 1 845 0
 1917 010c 0320     		movs	r0, #3
 1918 010e 92E7     		b	.L172
 1919              	.LVL140:
 1920              	.L212:
 777:Drivers/STM32F0xx_HAL_Driver/Src/stm32f0xx_hal_rcc.c ****       {
 1921              		.loc 1 777 0
 1922 0110 424A     		ldr	r2, .L216+16
 1923 0112 1268     		ldr	r2, [r2]
 1924 0114 9201     		lsls	r2, r2, #6
 1925 0116 DED4     		bmi	.L178
 779:Drivers/STM32F0xx_HAL_Driver/Src/stm32f0xx_hal_rcc.c ****       }
 1926              		.loc 1 779 0
 1927 0118 0120     		movs	r0, #1
 1928 011a 8CE7     		b	.L172
 1929              	.L213:
 787:Drivers/STM32F0xx_HAL_Driver/Src/stm32f0xx_hal_rcc.c ****       {
 1930              		.loc 1 787 0
 1931 011c 3F4A     		ldr	r2, .L216+16
 1932 011e 526B     		ldr	r2, [r2, #52]
 1933 0120 D203     		lsls	r2, r2, #15
 1934 0122 D8D4     		bmi	.L178
 789:Drivers/STM32F0xx_HAL_Driver/Src/stm32f0xx_hal_rcc.c ****       }
 1935              		.loc 1 789 0
 1936 0124 0120     		movs	r0, #1
 1937 0126 86E7     		b	.L172
 1938              	.LVL141:
 1939              	.L181:
 809:Drivers/STM32F0xx_HAL_Driver/Src/stm32f0xx_hal_rcc.c ****       {
 1940              		.loc 1 809 0
 1941 0128 3C4B     		ldr	r3, .L216+16
 1942 012a 5A68     		ldr	r2, [r3, #4]
 1943 012c 0C23     		movs	r3, #12
 1944 012e 1340     		ands	r3, r2
ARM GAS  /tmp/ccVTF5Db.s 			page 57


 1945 0130 042B     		cmp	r3, #4
 1946 0132 23D0     		beq	.L175
 811:Drivers/STM32F0xx_HAL_Driver/Src/stm32f0xx_hal_rcc.c ****         {
 1947              		.loc 1 811 0
 1948 0134 FFF7FEFF 		bl	HAL_GetTick
 1949              	.LVL142:
 1950 0138 801B     		subs	r0, r0, r6
 1951 013a 3B4B     		ldr	r3, .L216+28
 1952 013c 9842     		cmp	r0, r3
 1953 013e F3D9     		bls	.L181
 813:Drivers/STM32F0xx_HAL_Driver/Src/stm32f0xx_hal_rcc.c ****         }
 1954              		.loc 1 813 0
 1955 0140 0320     		movs	r0, #3
 1956 0142 78E7     		b	.L172
 1957              	.L184:
 819:Drivers/STM32F0xx_HAL_Driver/Src/stm32f0xx_hal_rcc.c ****       {
 1958              		.loc 1 819 0
 1959 0144 354B     		ldr	r3, .L216+16
 1960 0146 5A68     		ldr	r2, [r3, #4]
 1961 0148 0C23     		movs	r3, #12
 1962 014a 1340     		ands	r3, r2
 1963 014c 082B     		cmp	r3, #8
 1964 014e 15D0     		beq	.L175
 821:Drivers/STM32F0xx_HAL_Driver/Src/stm32f0xx_hal_rcc.c ****         {
 1965              		.loc 1 821 0
 1966 0150 FFF7FEFF 		bl	HAL_GetTick
 1967              	.LVL143:
 1968 0154 801B     		subs	r0, r0, r6
 1969 0156 344B     		ldr	r3, .L216+28
 1970 0158 9842     		cmp	r0, r3
 1971 015a F3D9     		bls	.L184
 823:Drivers/STM32F0xx_HAL_Driver/Src/stm32f0xx_hal_rcc.c ****         }
 1972              		.loc 1 823 0
 1973 015c 0320     		movs	r0, #3
 1974 015e 6AE7     		b	.L172
 1975              	.L187:
 830:Drivers/STM32F0xx_HAL_Driver/Src/stm32f0xx_hal_rcc.c ****       {
 1976              		.loc 1 830 0
 1977 0160 2E4B     		ldr	r3, .L216+16
 1978 0162 5A68     		ldr	r2, [r3, #4]
 1979 0164 0C23     		movs	r3, #12
 1980 0166 1340     		ands	r3, r2
 1981 0168 0C2B     		cmp	r3, #12
 1982 016a 07D0     		beq	.L175
 832:Drivers/STM32F0xx_HAL_Driver/Src/stm32f0xx_hal_rcc.c ****         {
 1983              		.loc 1 832 0
 1984 016c FFF7FEFF 		bl	HAL_GetTick
 1985              	.LVL144:
 1986 0170 801B     		subs	r0, r0, r6
 1987 0172 2D4B     		ldr	r3, .L216+28
 1988 0174 9842     		cmp	r0, r3
 1989 0176 F3D9     		bls	.L187
 834:Drivers/STM32F0xx_HAL_Driver/Src/stm32f0xx_hal_rcc.c ****         }
 1990              		.loc 1 834 0
 1991 0178 0320     		movs	r0, #3
 1992 017a 5CE7     		b	.L172
 1993              	.LVL145:
ARM GAS  /tmp/ccVTF5Db.s 			page 58


 1994              	.L175:
 851:Drivers/STM32F0xx_HAL_Driver/Src/stm32f0xx_hal_rcc.c ****   {    
 1995              		.loc 1 851 0
 1996 017c 234B     		ldr	r3, .L216
 1997 017e 1A68     		ldr	r2, [r3]
 1998 0180 0123     		movs	r3, #1
 1999 0182 1340     		ands	r3, r2
 2000 0184 AB42     		cmp	r3, r5
 2001 0186 0BD9     		bls	.L191
 854:Drivers/STM32F0xx_HAL_Driver/Src/stm32f0xx_hal_rcc.c ****     
 2002              		.loc 1 854 0
 2003 0188 2049     		ldr	r1, .L216
 2004 018a 0B68     		ldr	r3, [r1]
 2005 018c 0122     		movs	r2, #1
 2006 018e 9343     		bics	r3, r2
 2007 0190 2B43     		orrs	r3, r5
 2008 0192 0B60     		str	r3, [r1]
 858:Drivers/STM32F0xx_HAL_Driver/Src/stm32f0xx_hal_rcc.c ****     {
 2009              		.loc 1 858 0
 2010 0194 0B68     		ldr	r3, [r1]
 2011 0196 1A40     		ands	r2, r3
 2012 0198 AA42     		cmp	r2, r5
 2013 019a 01D0     		beq	.L191
 860:Drivers/STM32F0xx_HAL_Driver/Src/stm32f0xx_hal_rcc.c ****     }
 2014              		.loc 1 860 0
 2015 019c 0120     		movs	r0, #1
 2016 019e 4AE7     		b	.L172
 2017              	.L191:
 865:Drivers/STM32F0xx_HAL_Driver/Src/stm32f0xx_hal_rcc.c ****   {
 2018              		.loc 1 865 0
 2019 01a0 2368     		ldr	r3, [r4]
 2020 01a2 5B07     		lsls	r3, r3, #29
 2021 01a4 19D5     		bpl	.L192
 867:Drivers/STM32F0xx_HAL_Driver/Src/stm32f0xx_hal_rcc.c ****     MODIFY_REG(RCC->CFGR, RCC_CFGR_PPRE, RCC_ClkInitStruct->APB1CLKDivider);
 2022              		.loc 1 867 0
 2023 01a6 E368     		ldr	r3, [r4, #12]
 2024 01a8 002B     		cmp	r3, #0
 2025 01aa 0FD0     		beq	.L193
 867:Drivers/STM32F0xx_HAL_Driver/Src/stm32f0xx_hal_rcc.c ****     MODIFY_REG(RCC->CFGR, RCC_CFGR_PPRE, RCC_ClkInitStruct->APB1CLKDivider);
 2026              		.loc 1 867 0 is_stmt 0 discriminator 1
 2027 01ac 8022     		movs	r2, #128
 2028 01ae D200     		lsls	r2, r2, #3
 2029 01b0 9342     		cmp	r3, r2
 2030 01b2 0BD0     		beq	.L193
 867:Drivers/STM32F0xx_HAL_Driver/Src/stm32f0xx_hal_rcc.c ****     MODIFY_REG(RCC->CFGR, RCC_CFGR_PPRE, RCC_ClkInitStruct->APB1CLKDivider);
 2031              		.loc 1 867 0 discriminator 2
 2032 01b4 0132     		adds	r2, r2, #1
 2033 01b6 FF32     		adds	r2, r2, #255
 2034 01b8 9342     		cmp	r3, r2
 2035 01ba 07D0     		beq	.L193
 867:Drivers/STM32F0xx_HAL_Driver/Src/stm32f0xx_hal_rcc.c ****     MODIFY_REG(RCC->CFGR, RCC_CFGR_PPRE, RCC_ClkInitStruct->APB1CLKDivider);
 2036              		.loc 1 867 0 discriminator 3
 2037 01bc 0132     		adds	r2, r2, #1
 2038 01be FF32     		adds	r2, r2, #255
 2039 01c0 9342     		cmp	r3, r2
 2040 01c2 03D0     		beq	.L193
 867:Drivers/STM32F0xx_HAL_Driver/Src/stm32f0xx_hal_rcc.c ****     MODIFY_REG(RCC->CFGR, RCC_CFGR_PPRE, RCC_ClkInitStruct->APB1CLKDivider);
ARM GAS  /tmp/ccVTF5Db.s 			page 59


 2041              		.loc 1 867 0 discriminator 4
 2042 01c4 0132     		adds	r2, r2, #1
 2043 01c6 FF32     		adds	r2, r2, #255
 2044 01c8 9342     		cmp	r3, r2
 2045 01ca 17D1     		bne	.L215
 2046              	.L193:
 868:Drivers/STM32F0xx_HAL_Driver/Src/stm32f0xx_hal_rcc.c ****   }
 2047              		.loc 1 868 0 is_stmt 1
 2048 01cc 134A     		ldr	r2, .L216+16
 2049 01ce 5368     		ldr	r3, [r2, #4]
 2050 01d0 1649     		ldr	r1, .L216+32
 2051 01d2 0B40     		ands	r3, r1
 2052 01d4 E168     		ldr	r1, [r4, #12]
 2053 01d6 0B43     		orrs	r3, r1
 2054 01d8 5360     		str	r3, [r2, #4]
 2055              	.L192:
 872:Drivers/STM32F0xx_HAL_Driver/Src/stm32f0xx_hal_rcc.c **** 
 2056              		.loc 1 872 0
 2057 01da FFF7FEFF 		bl	HAL_RCC_GetSysClockFreq
 2058              	.LVL146:
 2059 01de 0F4B     		ldr	r3, .L216+16
 2060 01e0 5A68     		ldr	r2, [r3, #4]
 2061 01e2 1209     		lsrs	r2, r2, #4
 2062 01e4 0F23     		movs	r3, #15
 2063 01e6 1340     		ands	r3, r2
 2064 01e8 114A     		ldr	r2, .L216+36
 2065 01ea D35C     		ldrb	r3, [r2, r3]
 2066 01ec D840     		lsrs	r0, r0, r3
 2067 01ee 114B     		ldr	r3, .L216+40
 2068 01f0 1860     		str	r0, [r3]
 875:Drivers/STM32F0xx_HAL_Driver/Src/stm32f0xx_hal_rcc.c ****   
 2069              		.loc 1 875 0
 2070 01f2 0020     		movs	r0, #0
 2071 01f4 FFF7FEFF 		bl	HAL_InitTick
 2072              	.LVL147:
 877:Drivers/STM32F0xx_HAL_Driver/Src/stm32f0xx_hal_rcc.c **** }
 2073              		.loc 1 877 0
 2074 01f8 0020     		movs	r0, #0
 2075 01fa 1CE7     		b	.L172
 2076              	.L215:
 867:Drivers/STM32F0xx_HAL_Driver/Src/stm32f0xx_hal_rcc.c ****     MODIFY_REG(RCC->CFGR, RCC_CFGR_PPRE, RCC_ClkInitStruct->APB1CLKDivider);
 2077              		.loc 1 867 0 discriminator 5
 2078 01fc 0E49     		ldr	r1, .L216+44
 2079 01fe 0548     		ldr	r0, .L216+8
 2080 0200 FFF7FEFF 		bl	assert_failed
 2081              	.LVL148:
 2082 0204 E2E7     		b	.L193
 2083              	.LVL149:
 2084              	.L214:
 770:Drivers/STM32F0xx_HAL_Driver/Src/stm32f0xx_hal_rcc.c ****       }
 2085              		.loc 1 770 0
 2086 0206 0120     		movs	r0, #1
 2087 0208 15E7     		b	.L172
 2088              	.L217:
 2089 020a C046     		.align	2
 2090              	.L216:
 2091 020c 00200240 		.word	1073881088
ARM GAS  /tmp/ccVTF5Db.s 			page 60


 2092 0210 DA020000 		.word	730
 2093 0214 00000000 		.word	.LC3
 2094 0218 DB020000 		.word	731
 2095 021c 00100240 		.word	1073876992
 2096 0220 F3020000 		.word	755
 2097 0224 FA020000 		.word	762
 2098 0228 88130000 		.word	5000
 2099 022c FFF8FFFF 		.word	-1793
 2100 0230 00000000 		.word	AHBPrescTable
 2101 0234 00000000 		.word	SystemCoreClock
 2102 0238 63030000 		.word	867
 2103              		.cfi_endproc
 2104              	.LFE39:
 2106              		.section	.text.HAL_RCC_GetHCLKFreq,"ax",%progbits
 2107              		.align	1
 2108              		.global	HAL_RCC_GetHCLKFreq
 2109              		.syntax unified
 2110              		.code	16
 2111              		.thumb_func
 2112              		.fpu softvfp
 2114              	HAL_RCC_GetHCLKFreq:
 2115              	.LFB44:
1129:Drivers/STM32F0xx_HAL_Driver/Src/stm32f0xx_hal_rcc.c **** 
1130:Drivers/STM32F0xx_HAL_Driver/Src/stm32f0xx_hal_rcc.c **** /**
1131:Drivers/STM32F0xx_HAL_Driver/Src/stm32f0xx_hal_rcc.c ****   * @brief  Returns the HCLK frequency     
1132:Drivers/STM32F0xx_HAL_Driver/Src/stm32f0xx_hal_rcc.c ****   * @note   Each time HCLK changes, this function must be called to update the
1133:Drivers/STM32F0xx_HAL_Driver/Src/stm32f0xx_hal_rcc.c ****   *         right HCLK value. Otherwise, any configuration based on this function will be incorrect
1134:Drivers/STM32F0xx_HAL_Driver/Src/stm32f0xx_hal_rcc.c ****   * 
1135:Drivers/STM32F0xx_HAL_Driver/Src/stm32f0xx_hal_rcc.c ****   * @note   The SystemCoreClock CMSIS variable is used to store System Clock Frequency 
1136:Drivers/STM32F0xx_HAL_Driver/Src/stm32f0xx_hal_rcc.c ****   *         and updated within this function
1137:Drivers/STM32F0xx_HAL_Driver/Src/stm32f0xx_hal_rcc.c ****   * @retval HCLK frequency
1138:Drivers/STM32F0xx_HAL_Driver/Src/stm32f0xx_hal_rcc.c ****   */
1139:Drivers/STM32F0xx_HAL_Driver/Src/stm32f0xx_hal_rcc.c **** uint32_t HAL_RCC_GetHCLKFreq(void)
1140:Drivers/STM32F0xx_HAL_Driver/Src/stm32f0xx_hal_rcc.c **** {
 2116              		.loc 1 1140 0
 2117              		.cfi_startproc
 2118              		@ args = 0, pretend = 0, frame = 0
 2119              		@ frame_needed = 0, uses_anonymous_args = 0
 2120              		@ link register save eliminated.
1141:Drivers/STM32F0xx_HAL_Driver/Src/stm32f0xx_hal_rcc.c ****   return SystemCoreClock;
 2121              		.loc 1 1141 0
 2122 0000 014B     		ldr	r3, .L219
 2123 0002 1868     		ldr	r0, [r3]
1142:Drivers/STM32F0xx_HAL_Driver/Src/stm32f0xx_hal_rcc.c **** }
 2124              		.loc 1 1142 0
 2125              		@ sp needed
 2126 0004 7047     		bx	lr
 2127              	.L220:
 2128 0006 C046     		.align	2
 2129              	.L219:
 2130 0008 00000000 		.word	SystemCoreClock
 2131              		.cfi_endproc
 2132              	.LFE44:
 2134              		.section	.text.HAL_RCC_GetPCLK1Freq,"ax",%progbits
 2135              		.align	1
 2136              		.global	HAL_RCC_GetPCLK1Freq
 2137              		.syntax unified
ARM GAS  /tmp/ccVTF5Db.s 			page 61


 2138              		.code	16
 2139              		.thumb_func
 2140              		.fpu softvfp
 2142              	HAL_RCC_GetPCLK1Freq:
 2143              	.LFB45:
1143:Drivers/STM32F0xx_HAL_Driver/Src/stm32f0xx_hal_rcc.c **** 
1144:Drivers/STM32F0xx_HAL_Driver/Src/stm32f0xx_hal_rcc.c **** /**
1145:Drivers/STM32F0xx_HAL_Driver/Src/stm32f0xx_hal_rcc.c ****   * @brief  Returns the PCLK1 frequency     
1146:Drivers/STM32F0xx_HAL_Driver/Src/stm32f0xx_hal_rcc.c ****   * @note   Each time PCLK1 changes, this function must be called to update the
1147:Drivers/STM32F0xx_HAL_Driver/Src/stm32f0xx_hal_rcc.c ****   *         right PCLK1 value. Otherwise, any configuration based on this function will be incorrec
1148:Drivers/STM32F0xx_HAL_Driver/Src/stm32f0xx_hal_rcc.c ****   * @retval PCLK1 frequency
1149:Drivers/STM32F0xx_HAL_Driver/Src/stm32f0xx_hal_rcc.c ****   */
1150:Drivers/STM32F0xx_HAL_Driver/Src/stm32f0xx_hal_rcc.c **** uint32_t HAL_RCC_GetPCLK1Freq(void)
1151:Drivers/STM32F0xx_HAL_Driver/Src/stm32f0xx_hal_rcc.c **** {
 2144              		.loc 1 1151 0
 2145              		.cfi_startproc
 2146              		@ args = 0, pretend = 0, frame = 0
 2147              		@ frame_needed = 0, uses_anonymous_args = 0
 2148 0000 10B5     		push	{r4, lr}
 2149              	.LCFI7:
 2150              		.cfi_def_cfa_offset 8
 2151              		.cfi_offset 4, -8
 2152              		.cfi_offset 14, -4
1152:Drivers/STM32F0xx_HAL_Driver/Src/stm32f0xx_hal_rcc.c ****   /* Get HCLK source and Compute PCLK1 frequency ---------------------------*/
1153:Drivers/STM32F0xx_HAL_Driver/Src/stm32f0xx_hal_rcc.c ****   return (HAL_RCC_GetHCLKFreq() >> APBPrescTable[(RCC->CFGR & RCC_CFGR_PPRE) >> RCC_CFGR_PPRE_BITNU
 2153              		.loc 1 1153 0
 2154 0002 FFF7FEFF 		bl	HAL_RCC_GetHCLKFreq
 2155              	.LVL150:
 2156 0006 044B     		ldr	r3, .L222
 2157 0008 5A68     		ldr	r2, [r3, #4]
 2158 000a 120A     		lsrs	r2, r2, #8
 2159 000c 0723     		movs	r3, #7
 2160 000e 1340     		ands	r3, r2
 2161 0010 024A     		ldr	r2, .L222+4
 2162 0012 D35C     		ldrb	r3, [r2, r3]
 2163 0014 D840     		lsrs	r0, r0, r3
1154:Drivers/STM32F0xx_HAL_Driver/Src/stm32f0xx_hal_rcc.c **** }    
 2164              		.loc 1 1154 0
 2165              		@ sp needed
 2166 0016 10BD     		pop	{r4, pc}
 2167              	.L223:
 2168              		.align	2
 2169              	.L222:
 2170 0018 00100240 		.word	1073876992
 2171 001c 00000000 		.word	APBPrescTable
 2172              		.cfi_endproc
 2173              	.LFE45:
 2175              		.section	.text.HAL_RCC_GetOscConfig,"ax",%progbits
 2176              		.align	1
 2177              		.global	HAL_RCC_GetOscConfig
 2178              		.syntax unified
 2179              		.code	16
 2180              		.thumb_func
 2181              		.fpu softvfp
 2183              	HAL_RCC_GetOscConfig:
 2184              	.LFB46:
1155:Drivers/STM32F0xx_HAL_Driver/Src/stm32f0xx_hal_rcc.c **** 
ARM GAS  /tmp/ccVTF5Db.s 			page 62


1156:Drivers/STM32F0xx_HAL_Driver/Src/stm32f0xx_hal_rcc.c **** /**
1157:Drivers/STM32F0xx_HAL_Driver/Src/stm32f0xx_hal_rcc.c ****   * @brief  Configures the RCC_OscInitStruct according to the internal 
1158:Drivers/STM32F0xx_HAL_Driver/Src/stm32f0xx_hal_rcc.c ****   * RCC configuration registers.
1159:Drivers/STM32F0xx_HAL_Driver/Src/stm32f0xx_hal_rcc.c ****   * @param  RCC_OscInitStruct pointer to an RCC_OscInitTypeDef structure that 
1160:Drivers/STM32F0xx_HAL_Driver/Src/stm32f0xx_hal_rcc.c ****   * will be configured.
1161:Drivers/STM32F0xx_HAL_Driver/Src/stm32f0xx_hal_rcc.c ****   * @retval None
1162:Drivers/STM32F0xx_HAL_Driver/Src/stm32f0xx_hal_rcc.c ****   */
1163:Drivers/STM32F0xx_HAL_Driver/Src/stm32f0xx_hal_rcc.c **** void HAL_RCC_GetOscConfig(RCC_OscInitTypeDef  *RCC_OscInitStruct)
1164:Drivers/STM32F0xx_HAL_Driver/Src/stm32f0xx_hal_rcc.c **** {
 2185              		.loc 1 1164 0
 2186              		.cfi_startproc
 2187              		@ args = 0, pretend = 0, frame = 0
 2188              		@ frame_needed = 0, uses_anonymous_args = 0
 2189              	.LVL151:
 2190 0000 10B5     		push	{r4, lr}
 2191              	.LCFI8:
 2192              		.cfi_def_cfa_offset 8
 2193              		.cfi_offset 4, -8
 2194              		.cfi_offset 14, -4
 2195 0002 041E     		subs	r4, r0, #0
1165:Drivers/STM32F0xx_HAL_Driver/Src/stm32f0xx_hal_rcc.c ****   /* Check the parameters */
1166:Drivers/STM32F0xx_HAL_Driver/Src/stm32f0xx_hal_rcc.c ****   assert_param(RCC_OscInitStruct != NULL);
 2196              		.loc 1 1166 0
 2197 0004 46D0     		beq	.L240
 2198              	.LVL152:
 2199              	.L225:
1167:Drivers/STM32F0xx_HAL_Driver/Src/stm32f0xx_hal_rcc.c **** 
1168:Drivers/STM32F0xx_HAL_Driver/Src/stm32f0xx_hal_rcc.c ****   /* Set all possible values for the Oscillator type parameter ---------------*/
1169:Drivers/STM32F0xx_HAL_Driver/Src/stm32f0xx_hal_rcc.c ****   RCC_OscInitStruct->OscillatorType = RCC_OSCILLATORTYPE_HSE | RCC_OSCILLATORTYPE_HSI  \
1170:Drivers/STM32F0xx_HAL_Driver/Src/stm32f0xx_hal_rcc.c ****                   | RCC_OSCILLATORTYPE_LSE | RCC_OSCILLATORTYPE_LSI | RCC_OSCILLATORTYPE_HSI14;
1171:Drivers/STM32F0xx_HAL_Driver/Src/stm32f0xx_hal_rcc.c **** #if defined(RCC_HSI48_SUPPORT)
1172:Drivers/STM32F0xx_HAL_Driver/Src/stm32f0xx_hal_rcc.c ****   RCC_OscInitStruct->OscillatorType |= RCC_OSCILLATORTYPE_HSI48;
 2200              		.loc 1 1172 0
 2201 0006 3F23     		movs	r3, #63
 2202 0008 2360     		str	r3, [r4]
1173:Drivers/STM32F0xx_HAL_Driver/Src/stm32f0xx_hal_rcc.c **** #endif /* RCC_HSI48_SUPPORT */
1174:Drivers/STM32F0xx_HAL_Driver/Src/stm32f0xx_hal_rcc.c **** 
1175:Drivers/STM32F0xx_HAL_Driver/Src/stm32f0xx_hal_rcc.c **** 
1176:Drivers/STM32F0xx_HAL_Driver/Src/stm32f0xx_hal_rcc.c ****   /* Get the HSE configuration -----------------------------------------------*/
1177:Drivers/STM32F0xx_HAL_Driver/Src/stm32f0xx_hal_rcc.c ****   if((RCC->CR &RCC_CR_HSEBYP) == RCC_CR_HSEBYP)
 2203              		.loc 1 1177 0
 2204 000a 354B     		ldr	r3, .L242
 2205 000c 1B68     		ldr	r3, [r3]
 2206 000e 5B03     		lsls	r3, r3, #13
 2207 0010 45D5     		bpl	.L226
1178:Drivers/STM32F0xx_HAL_Driver/Src/stm32f0xx_hal_rcc.c ****   {
1179:Drivers/STM32F0xx_HAL_Driver/Src/stm32f0xx_hal_rcc.c ****     RCC_OscInitStruct->HSEState = RCC_HSE_BYPASS;
 2208              		.loc 1 1179 0
 2209 0012 0523     		movs	r3, #5
 2210 0014 6360     		str	r3, [r4, #4]
 2211              	.L227:
1180:Drivers/STM32F0xx_HAL_Driver/Src/stm32f0xx_hal_rcc.c ****   }
1181:Drivers/STM32F0xx_HAL_Driver/Src/stm32f0xx_hal_rcc.c ****   else if((RCC->CR &RCC_CR_HSEON) == RCC_CR_HSEON)
1182:Drivers/STM32F0xx_HAL_Driver/Src/stm32f0xx_hal_rcc.c ****   {
1183:Drivers/STM32F0xx_HAL_Driver/Src/stm32f0xx_hal_rcc.c ****     RCC_OscInitStruct->HSEState = RCC_HSE_ON;
1184:Drivers/STM32F0xx_HAL_Driver/Src/stm32f0xx_hal_rcc.c ****   }
1185:Drivers/STM32F0xx_HAL_Driver/Src/stm32f0xx_hal_rcc.c ****   else
ARM GAS  /tmp/ccVTF5Db.s 			page 63


1186:Drivers/STM32F0xx_HAL_Driver/Src/stm32f0xx_hal_rcc.c ****   {
1187:Drivers/STM32F0xx_HAL_Driver/Src/stm32f0xx_hal_rcc.c ****     RCC_OscInitStruct->HSEState = RCC_HSE_OFF;
1188:Drivers/STM32F0xx_HAL_Driver/Src/stm32f0xx_hal_rcc.c ****   }
1189:Drivers/STM32F0xx_HAL_Driver/Src/stm32f0xx_hal_rcc.c **** 
1190:Drivers/STM32F0xx_HAL_Driver/Src/stm32f0xx_hal_rcc.c ****   /* Get the HSI configuration -----------------------------------------------*/
1191:Drivers/STM32F0xx_HAL_Driver/Src/stm32f0xx_hal_rcc.c ****   if((RCC->CR &RCC_CR_HSION) == RCC_CR_HSION)
 2212              		.loc 1 1191 0
 2213 0016 324B     		ldr	r3, .L242
 2214 0018 1B68     		ldr	r3, [r3]
 2215 001a DB07     		lsls	r3, r3, #31
 2216 001c 49D5     		bpl	.L229
1192:Drivers/STM32F0xx_HAL_Driver/Src/stm32f0xx_hal_rcc.c ****   {
1193:Drivers/STM32F0xx_HAL_Driver/Src/stm32f0xx_hal_rcc.c ****     RCC_OscInitStruct->HSIState = RCC_HSI_ON;
 2217              		.loc 1 1193 0
 2218 001e 0123     		movs	r3, #1
 2219 0020 E360     		str	r3, [r4, #12]
 2220              	.L230:
1194:Drivers/STM32F0xx_HAL_Driver/Src/stm32f0xx_hal_rcc.c ****   }
1195:Drivers/STM32F0xx_HAL_Driver/Src/stm32f0xx_hal_rcc.c ****   else
1196:Drivers/STM32F0xx_HAL_Driver/Src/stm32f0xx_hal_rcc.c ****   {
1197:Drivers/STM32F0xx_HAL_Driver/Src/stm32f0xx_hal_rcc.c ****     RCC_OscInitStruct->HSIState = RCC_HSI_OFF;
1198:Drivers/STM32F0xx_HAL_Driver/Src/stm32f0xx_hal_rcc.c ****   }
1199:Drivers/STM32F0xx_HAL_Driver/Src/stm32f0xx_hal_rcc.c ****   
1200:Drivers/STM32F0xx_HAL_Driver/Src/stm32f0xx_hal_rcc.c ****   RCC_OscInitStruct->HSICalibrationValue = (uint32_t)((RCC->CR &RCC_CR_HSITRIM) >> RCC_CR_HSITRIM_B
 2221              		.loc 1 1200 0
 2222 0022 2F49     		ldr	r1, .L242
 2223 0024 0A68     		ldr	r2, [r1]
 2224 0026 D208     		lsrs	r2, r2, #3
 2225 0028 1F23     		movs	r3, #31
 2226 002a 1340     		ands	r3, r2
 2227 002c 2361     		str	r3, [r4, #16]
1201:Drivers/STM32F0xx_HAL_Driver/Src/stm32f0xx_hal_rcc.c ****   
1202:Drivers/STM32F0xx_HAL_Driver/Src/stm32f0xx_hal_rcc.c ****   /* Get the LSE configuration -----------------------------------------------*/
1203:Drivers/STM32F0xx_HAL_Driver/Src/stm32f0xx_hal_rcc.c ****   if((RCC->BDCR &RCC_BDCR_LSEBYP) == RCC_BDCR_LSEBYP)
 2228              		.loc 1 1203 0
 2229 002e 0B6A     		ldr	r3, [r1, #32]
 2230 0030 5B07     		lsls	r3, r3, #29
 2231 0032 41D5     		bpl	.L231
1204:Drivers/STM32F0xx_HAL_Driver/Src/stm32f0xx_hal_rcc.c ****   {
1205:Drivers/STM32F0xx_HAL_Driver/Src/stm32f0xx_hal_rcc.c ****     RCC_OscInitStruct->LSEState = RCC_LSE_BYPASS;
 2232              		.loc 1 1205 0
 2233 0034 0523     		movs	r3, #5
 2234 0036 A360     		str	r3, [r4, #8]
 2235              	.L232:
1206:Drivers/STM32F0xx_HAL_Driver/Src/stm32f0xx_hal_rcc.c ****   }
1207:Drivers/STM32F0xx_HAL_Driver/Src/stm32f0xx_hal_rcc.c ****   else if((RCC->BDCR &RCC_BDCR_LSEON) == RCC_BDCR_LSEON)
1208:Drivers/STM32F0xx_HAL_Driver/Src/stm32f0xx_hal_rcc.c ****   {
1209:Drivers/STM32F0xx_HAL_Driver/Src/stm32f0xx_hal_rcc.c ****     RCC_OscInitStruct->LSEState = RCC_LSE_ON;
1210:Drivers/STM32F0xx_HAL_Driver/Src/stm32f0xx_hal_rcc.c ****   }
1211:Drivers/STM32F0xx_HAL_Driver/Src/stm32f0xx_hal_rcc.c ****   else
1212:Drivers/STM32F0xx_HAL_Driver/Src/stm32f0xx_hal_rcc.c ****   {
1213:Drivers/STM32F0xx_HAL_Driver/Src/stm32f0xx_hal_rcc.c ****     RCC_OscInitStruct->LSEState = RCC_LSE_OFF;
1214:Drivers/STM32F0xx_HAL_Driver/Src/stm32f0xx_hal_rcc.c ****   }
1215:Drivers/STM32F0xx_HAL_Driver/Src/stm32f0xx_hal_rcc.c ****   
1216:Drivers/STM32F0xx_HAL_Driver/Src/stm32f0xx_hal_rcc.c ****   /* Get the LSI configuration -----------------------------------------------*/
1217:Drivers/STM32F0xx_HAL_Driver/Src/stm32f0xx_hal_rcc.c ****   if((RCC->CSR &RCC_CSR_LSION) == RCC_CSR_LSION)
 2236              		.loc 1 1217 0
ARM GAS  /tmp/ccVTF5Db.s 			page 64


 2237 0038 294B     		ldr	r3, .L242
 2238 003a 5B6A     		ldr	r3, [r3, #36]
 2239 003c DB07     		lsls	r3, r3, #31
 2240 003e 45D5     		bpl	.L234
1218:Drivers/STM32F0xx_HAL_Driver/Src/stm32f0xx_hal_rcc.c ****   {
1219:Drivers/STM32F0xx_HAL_Driver/Src/stm32f0xx_hal_rcc.c ****     RCC_OscInitStruct->LSIState = RCC_LSI_ON;
 2241              		.loc 1 1219 0
 2242 0040 0123     		movs	r3, #1
 2243 0042 E361     		str	r3, [r4, #28]
 2244              	.L235:
1220:Drivers/STM32F0xx_HAL_Driver/Src/stm32f0xx_hal_rcc.c ****   }
1221:Drivers/STM32F0xx_HAL_Driver/Src/stm32f0xx_hal_rcc.c ****   else
1222:Drivers/STM32F0xx_HAL_Driver/Src/stm32f0xx_hal_rcc.c ****   {
1223:Drivers/STM32F0xx_HAL_Driver/Src/stm32f0xx_hal_rcc.c ****     RCC_OscInitStruct->LSIState = RCC_LSI_OFF;
1224:Drivers/STM32F0xx_HAL_Driver/Src/stm32f0xx_hal_rcc.c ****   }
1225:Drivers/STM32F0xx_HAL_Driver/Src/stm32f0xx_hal_rcc.c ****   
1226:Drivers/STM32F0xx_HAL_Driver/Src/stm32f0xx_hal_rcc.c ****   /* Get the HSI14 configuration -----------------------------------------------*/
1227:Drivers/STM32F0xx_HAL_Driver/Src/stm32f0xx_hal_rcc.c ****   if((RCC->CR2 & RCC_CR2_HSI14ON) == RCC_CR2_HSI14ON)
 2245              		.loc 1 1227 0
 2246 0044 264B     		ldr	r3, .L242
 2247 0046 5B6B     		ldr	r3, [r3, #52]
 2248 0048 DB07     		lsls	r3, r3, #31
 2249 004a 42D5     		bpl	.L236
1228:Drivers/STM32F0xx_HAL_Driver/Src/stm32f0xx_hal_rcc.c ****   {
1229:Drivers/STM32F0xx_HAL_Driver/Src/stm32f0xx_hal_rcc.c ****     RCC_OscInitStruct->HSI14State = RCC_HSI_ON;
 2250              		.loc 1 1229 0
 2251 004c 0123     		movs	r3, #1
 2252 004e 6361     		str	r3, [r4, #20]
 2253              	.L237:
1230:Drivers/STM32F0xx_HAL_Driver/Src/stm32f0xx_hal_rcc.c ****   }
1231:Drivers/STM32F0xx_HAL_Driver/Src/stm32f0xx_hal_rcc.c ****   else
1232:Drivers/STM32F0xx_HAL_Driver/Src/stm32f0xx_hal_rcc.c ****   {
1233:Drivers/STM32F0xx_HAL_Driver/Src/stm32f0xx_hal_rcc.c ****     RCC_OscInitStruct->HSI14State = RCC_HSI_OFF;
1234:Drivers/STM32F0xx_HAL_Driver/Src/stm32f0xx_hal_rcc.c ****   }
1235:Drivers/STM32F0xx_HAL_Driver/Src/stm32f0xx_hal_rcc.c **** 
1236:Drivers/STM32F0xx_HAL_Driver/Src/stm32f0xx_hal_rcc.c ****   RCC_OscInitStruct->HSI14CalibrationValue = (uint32_t)((RCC->CR2 & RCC_CR2_HSI14TRIM) >> RCC_HSI14
 2254              		.loc 1 1236 0
 2255 0050 234A     		ldr	r2, .L242
 2256 0052 516B     		ldr	r1, [r2, #52]
 2257 0054 C908     		lsrs	r1, r1, #3
 2258 0056 1F23     		movs	r3, #31
 2259 0058 0B40     		ands	r3, r1
 2260 005a A361     		str	r3, [r4, #24]
1237:Drivers/STM32F0xx_HAL_Driver/Src/stm32f0xx_hal_rcc.c ****   
1238:Drivers/STM32F0xx_HAL_Driver/Src/stm32f0xx_hal_rcc.c **** #if defined(RCC_HSI48_SUPPORT)
1239:Drivers/STM32F0xx_HAL_Driver/Src/stm32f0xx_hal_rcc.c ****   /* Get the HSI48 configuration if any-----------------------------------------*/
1240:Drivers/STM32F0xx_HAL_Driver/Src/stm32f0xx_hal_rcc.c ****   RCC_OscInitStruct->HSI48State = __HAL_RCC_GET_HSI48_STATE();
 2261              		.loc 1 1240 0
 2262 005c 536B     		ldr	r3, [r2, #52]
 2263 005e 8021     		movs	r1, #128
 2264 0060 4902     		lsls	r1, r1, #9
 2265 0062 0B40     		ands	r3, r1
 2266 0064 591E     		subs	r1, r3, #1
 2267 0066 8B41     		sbcs	r3, r3, r1
 2268 0068 2362     		str	r3, [r4, #32]
1241:Drivers/STM32F0xx_HAL_Driver/Src/stm32f0xx_hal_rcc.c **** #endif /* RCC_HSI48_SUPPORT */
1242:Drivers/STM32F0xx_HAL_Driver/Src/stm32f0xx_hal_rcc.c **** 
ARM GAS  /tmp/ccVTF5Db.s 			page 65


1243:Drivers/STM32F0xx_HAL_Driver/Src/stm32f0xx_hal_rcc.c ****   /* Get the PLL configuration -----------------------------------------------*/
1244:Drivers/STM32F0xx_HAL_Driver/Src/stm32f0xx_hal_rcc.c ****   if((RCC->CR &RCC_CR_PLLON) == RCC_CR_PLLON)
 2269              		.loc 1 1244 0
 2270 006a 1368     		ldr	r3, [r2]
 2271 006c DB01     		lsls	r3, r3, #7
 2272 006e 33D4     		bmi	.L241
1245:Drivers/STM32F0xx_HAL_Driver/Src/stm32f0xx_hal_rcc.c ****   {
1246:Drivers/STM32F0xx_HAL_Driver/Src/stm32f0xx_hal_rcc.c ****     RCC_OscInitStruct->PLL.PLLState = RCC_PLL_ON;
1247:Drivers/STM32F0xx_HAL_Driver/Src/stm32f0xx_hal_rcc.c ****   }
1248:Drivers/STM32F0xx_HAL_Driver/Src/stm32f0xx_hal_rcc.c ****   else
1249:Drivers/STM32F0xx_HAL_Driver/Src/stm32f0xx_hal_rcc.c ****   {
1250:Drivers/STM32F0xx_HAL_Driver/Src/stm32f0xx_hal_rcc.c ****     RCC_OscInitStruct->PLL.PLLState = RCC_PLL_OFF;
 2273              		.loc 1 1250 0
 2274 0070 0123     		movs	r3, #1
 2275 0072 6362     		str	r3, [r4, #36]
 2276              	.L239:
1251:Drivers/STM32F0xx_HAL_Driver/Src/stm32f0xx_hal_rcc.c ****   }
1252:Drivers/STM32F0xx_HAL_Driver/Src/stm32f0xx_hal_rcc.c ****   RCC_OscInitStruct->PLL.PLLSource = (uint32_t)(RCC->CFGR & RCC_CFGR_PLLSRC);
 2277              		.loc 1 1252 0
 2278 0074 1A4B     		ldr	r3, .L242
 2279 0076 5A68     		ldr	r2, [r3, #4]
 2280 0078 C021     		movs	r1, #192
 2281 007a 4902     		lsls	r1, r1, #9
 2282 007c 0A40     		ands	r2, r1
 2283 007e A262     		str	r2, [r4, #40]
1253:Drivers/STM32F0xx_HAL_Driver/Src/stm32f0xx_hal_rcc.c ****   RCC_OscInitStruct->PLL.PLLMUL = (uint32_t)(RCC->CFGR & RCC_CFGR_PLLMUL);
 2284              		.loc 1 1253 0
 2285 0080 5A68     		ldr	r2, [r3, #4]
 2286 0082 F021     		movs	r1, #240
 2287 0084 8903     		lsls	r1, r1, #14
 2288 0086 0A40     		ands	r2, r1
 2289 0088 E262     		str	r2, [r4, #44]
1254:Drivers/STM32F0xx_HAL_Driver/Src/stm32f0xx_hal_rcc.c ****   RCC_OscInitStruct->PLL.PREDIV = (uint32_t)(RCC->CFGR2 & RCC_CFGR2_PREDIV);
 2290              		.loc 1 1254 0
 2291 008a DA6A     		ldr	r2, [r3, #44]
 2292 008c 0F23     		movs	r3, #15
 2293 008e 1340     		ands	r3, r2
 2294 0090 2363     		str	r3, [r4, #48]
1255:Drivers/STM32F0xx_HAL_Driver/Src/stm32f0xx_hal_rcc.c **** }
 2295              		.loc 1 1255 0
 2296              		@ sp needed
 2297              	.LVL153:
 2298 0092 10BD     		pop	{r4, pc}
 2299              	.LVL154:
 2300              	.L240:
1166:Drivers/STM32F0xx_HAL_Driver/Src/stm32f0xx_hal_rcc.c **** 
 2301              		.loc 1 1166 0 discriminator 1
 2302 0094 1349     		ldr	r1, .L242+4
 2303 0096 1448     		ldr	r0, .L242+8
 2304              	.LVL155:
 2305 0098 FFF7FEFF 		bl	assert_failed
 2306              	.LVL156:
 2307 009c B3E7     		b	.L225
 2308              	.L226:
1181:Drivers/STM32F0xx_HAL_Driver/Src/stm32f0xx_hal_rcc.c ****   {
 2309              		.loc 1 1181 0
 2310 009e 104B     		ldr	r3, .L242
ARM GAS  /tmp/ccVTF5Db.s 			page 66


 2311 00a0 1B68     		ldr	r3, [r3]
 2312 00a2 DB03     		lsls	r3, r3, #15
 2313 00a4 02D5     		bpl	.L228
1183:Drivers/STM32F0xx_HAL_Driver/Src/stm32f0xx_hal_rcc.c ****   }
 2314              		.loc 1 1183 0
 2315 00a6 0123     		movs	r3, #1
 2316 00a8 6360     		str	r3, [r4, #4]
 2317 00aa B4E7     		b	.L227
 2318              	.L228:
1187:Drivers/STM32F0xx_HAL_Driver/Src/stm32f0xx_hal_rcc.c ****   }
 2319              		.loc 1 1187 0
 2320 00ac 0023     		movs	r3, #0
 2321 00ae 6360     		str	r3, [r4, #4]
 2322 00b0 B1E7     		b	.L227
 2323              	.L229:
1197:Drivers/STM32F0xx_HAL_Driver/Src/stm32f0xx_hal_rcc.c ****   }
 2324              		.loc 1 1197 0
 2325 00b2 0023     		movs	r3, #0
 2326 00b4 E360     		str	r3, [r4, #12]
 2327 00b6 B4E7     		b	.L230
 2328              	.L231:
1207:Drivers/STM32F0xx_HAL_Driver/Src/stm32f0xx_hal_rcc.c ****   {
 2329              		.loc 1 1207 0
 2330 00b8 094B     		ldr	r3, .L242
 2331 00ba 1B6A     		ldr	r3, [r3, #32]
 2332 00bc DB07     		lsls	r3, r3, #31
 2333 00be 02D5     		bpl	.L233
1209:Drivers/STM32F0xx_HAL_Driver/Src/stm32f0xx_hal_rcc.c ****   }
 2334              		.loc 1 1209 0
 2335 00c0 0123     		movs	r3, #1
 2336 00c2 A360     		str	r3, [r4, #8]
 2337 00c4 B8E7     		b	.L232
 2338              	.L233:
1213:Drivers/STM32F0xx_HAL_Driver/Src/stm32f0xx_hal_rcc.c ****   }
 2339              		.loc 1 1213 0
 2340 00c6 0023     		movs	r3, #0
 2341 00c8 A360     		str	r3, [r4, #8]
 2342 00ca B5E7     		b	.L232
 2343              	.L234:
1223:Drivers/STM32F0xx_HAL_Driver/Src/stm32f0xx_hal_rcc.c ****   }
 2344              		.loc 1 1223 0
 2345 00cc 0023     		movs	r3, #0
 2346 00ce E361     		str	r3, [r4, #28]
 2347 00d0 B8E7     		b	.L235
 2348              	.L236:
1233:Drivers/STM32F0xx_HAL_Driver/Src/stm32f0xx_hal_rcc.c ****   }
 2349              		.loc 1 1233 0
 2350 00d2 0023     		movs	r3, #0
 2351 00d4 6361     		str	r3, [r4, #20]
 2352 00d6 BBE7     		b	.L237
 2353              	.L241:
1246:Drivers/STM32F0xx_HAL_Driver/Src/stm32f0xx_hal_rcc.c ****   }
 2354              		.loc 1 1246 0
 2355 00d8 0223     		movs	r3, #2
 2356 00da 6362     		str	r3, [r4, #36]
 2357 00dc CAE7     		b	.L239
 2358              	.L243:
ARM GAS  /tmp/ccVTF5Db.s 			page 67


 2359 00de C046     		.align	2
 2360              	.L242:
 2361 00e0 00100240 		.word	1073876992
 2362 00e4 8E040000 		.word	1166
 2363 00e8 00000000 		.word	.LC3
 2364              		.cfi_endproc
 2365              	.LFE46:
 2367              		.section	.text.HAL_RCC_GetClockConfig,"ax",%progbits
 2368              		.align	1
 2369              		.global	HAL_RCC_GetClockConfig
 2370              		.syntax unified
 2371              		.code	16
 2372              		.thumb_func
 2373              		.fpu softvfp
 2375              	HAL_RCC_GetClockConfig:
 2376              	.LFB47:
1256:Drivers/STM32F0xx_HAL_Driver/Src/stm32f0xx_hal_rcc.c **** 
1257:Drivers/STM32F0xx_HAL_Driver/Src/stm32f0xx_hal_rcc.c **** /**
1258:Drivers/STM32F0xx_HAL_Driver/Src/stm32f0xx_hal_rcc.c ****   * @brief  Get the RCC_ClkInitStruct according to the internal 
1259:Drivers/STM32F0xx_HAL_Driver/Src/stm32f0xx_hal_rcc.c ****   * RCC configuration registers.
1260:Drivers/STM32F0xx_HAL_Driver/Src/stm32f0xx_hal_rcc.c ****   * @param  RCC_ClkInitStruct pointer to an RCC_ClkInitTypeDef structure that 
1261:Drivers/STM32F0xx_HAL_Driver/Src/stm32f0xx_hal_rcc.c ****   * contains the current clock configuration.
1262:Drivers/STM32F0xx_HAL_Driver/Src/stm32f0xx_hal_rcc.c ****   * @param  pFLatency Pointer on the Flash Latency.
1263:Drivers/STM32F0xx_HAL_Driver/Src/stm32f0xx_hal_rcc.c ****   * @retval None
1264:Drivers/STM32F0xx_HAL_Driver/Src/stm32f0xx_hal_rcc.c ****   */
1265:Drivers/STM32F0xx_HAL_Driver/Src/stm32f0xx_hal_rcc.c **** void HAL_RCC_GetClockConfig(RCC_ClkInitTypeDef  *RCC_ClkInitStruct, uint32_t *pFLatency)
1266:Drivers/STM32F0xx_HAL_Driver/Src/stm32f0xx_hal_rcc.c **** {
 2377              		.loc 1 1266 0
 2378              		.cfi_startproc
 2379              		@ args = 0, pretend = 0, frame = 0
 2380              		@ frame_needed = 0, uses_anonymous_args = 0
 2381              	.LVL157:
 2382 0000 70B5     		push	{r4, r5, r6, lr}
 2383              	.LCFI9:
 2384              		.cfi_def_cfa_offset 16
 2385              		.cfi_offset 4, -16
 2386              		.cfi_offset 5, -12
 2387              		.cfi_offset 6, -8
 2388              		.cfi_offset 14, -4
 2389 0002 0400     		movs	r4, r0
 2390 0004 0D00     		movs	r5, r1
1267:Drivers/STM32F0xx_HAL_Driver/Src/stm32f0xx_hal_rcc.c ****   /* Check the parameters */
1268:Drivers/STM32F0xx_HAL_Driver/Src/stm32f0xx_hal_rcc.c ****   assert_param(RCC_ClkInitStruct != NULL);
 2391              		.loc 1 1268 0
 2392 0006 0028     		cmp	r0, #0
 2393 0008 17D0     		beq	.L247
 2394              	.LVL158:
 2395              	.L245:
1269:Drivers/STM32F0xx_HAL_Driver/Src/stm32f0xx_hal_rcc.c ****   assert_param(pFLatency != NULL);
 2396              		.loc 1 1269 0
 2397 000a 002D     		cmp	r5, #0
 2398 000c 1AD0     		beq	.L248
 2399              	.L246:
1270:Drivers/STM32F0xx_HAL_Driver/Src/stm32f0xx_hal_rcc.c **** 
1271:Drivers/STM32F0xx_HAL_Driver/Src/stm32f0xx_hal_rcc.c ****   /* Set all possible values for the Clock type parameter --------------------*/
1272:Drivers/STM32F0xx_HAL_Driver/Src/stm32f0xx_hal_rcc.c ****   RCC_ClkInitStruct->ClockType = RCC_CLOCKTYPE_SYSCLK | RCC_CLOCKTYPE_HCLK | RCC_CLOCKTYPE_PCLK1;
 2400              		.loc 1 1272 0
ARM GAS  /tmp/ccVTF5Db.s 			page 68


 2401 000e 0723     		movs	r3, #7
 2402 0010 2360     		str	r3, [r4]
1273:Drivers/STM32F0xx_HAL_Driver/Src/stm32f0xx_hal_rcc.c ****   
1274:Drivers/STM32F0xx_HAL_Driver/Src/stm32f0xx_hal_rcc.c ****   /* Get the SYSCLK configuration --------------------------------------------*/ 
1275:Drivers/STM32F0xx_HAL_Driver/Src/stm32f0xx_hal_rcc.c ****   RCC_ClkInitStruct->SYSCLKSource = (uint32_t)(RCC->CFGR & RCC_CFGR_SW);
 2403              		.loc 1 1275 0
 2404 0012 0F4B     		ldr	r3, .L249
 2405 0014 5968     		ldr	r1, [r3, #4]
 2406 0016 0322     		movs	r2, #3
 2407 0018 0A40     		ands	r2, r1
 2408 001a 6260     		str	r2, [r4, #4]
1276:Drivers/STM32F0xx_HAL_Driver/Src/stm32f0xx_hal_rcc.c ****   
1277:Drivers/STM32F0xx_HAL_Driver/Src/stm32f0xx_hal_rcc.c ****   /* Get the HCLK configuration ----------------------------------------------*/ 
1278:Drivers/STM32F0xx_HAL_Driver/Src/stm32f0xx_hal_rcc.c ****   RCC_ClkInitStruct->AHBCLKDivider = (uint32_t)(RCC->CFGR & RCC_CFGR_HPRE); 
 2409              		.loc 1 1278 0
 2410 001c 5968     		ldr	r1, [r3, #4]
 2411 001e F022     		movs	r2, #240
 2412 0020 0A40     		ands	r2, r1
 2413 0022 A260     		str	r2, [r4, #8]
1279:Drivers/STM32F0xx_HAL_Driver/Src/stm32f0xx_hal_rcc.c ****   
1280:Drivers/STM32F0xx_HAL_Driver/Src/stm32f0xx_hal_rcc.c ****   /* Get the APB1 configuration ----------------------------------------------*/ 
1281:Drivers/STM32F0xx_HAL_Driver/Src/stm32f0xx_hal_rcc.c ****   RCC_ClkInitStruct->APB1CLKDivider = (uint32_t)(RCC->CFGR & RCC_CFGR_PPRE);   
 2414              		.loc 1 1281 0
 2415 0024 5B68     		ldr	r3, [r3, #4]
 2416 0026 E022     		movs	r2, #224
 2417 0028 D200     		lsls	r2, r2, #3
 2418 002a 1340     		ands	r3, r2
 2419 002c E360     		str	r3, [r4, #12]
1282:Drivers/STM32F0xx_HAL_Driver/Src/stm32f0xx_hal_rcc.c ****   /* Get the Flash Wait State (Latency) configuration ------------------------*/   
1283:Drivers/STM32F0xx_HAL_Driver/Src/stm32f0xx_hal_rcc.c ****   *pFLatency = (uint32_t)(FLASH->ACR & FLASH_ACR_LATENCY); 
 2420              		.loc 1 1283 0
 2421 002e 094B     		ldr	r3, .L249+4
 2422 0030 1A68     		ldr	r2, [r3]
 2423 0032 0123     		movs	r3, #1
 2424 0034 1340     		ands	r3, r2
 2425 0036 2B60     		str	r3, [r5]
1284:Drivers/STM32F0xx_HAL_Driver/Src/stm32f0xx_hal_rcc.c **** }
 2426              		.loc 1 1284 0
 2427              		@ sp needed
 2428              	.LVL159:
 2429              	.LVL160:
 2430 0038 70BD     		pop	{r4, r5, r6, pc}
 2431              	.LVL161:
 2432              	.L247:
1268:Drivers/STM32F0xx_HAL_Driver/Src/stm32f0xx_hal_rcc.c ****   assert_param(pFLatency != NULL);
 2433              		.loc 1 1268 0 discriminator 1
 2434 003a 0749     		ldr	r1, .L249+8
 2435              	.LVL162:
 2436 003c 0748     		ldr	r0, .L249+12
 2437              	.LVL163:
 2438 003e FFF7FEFF 		bl	assert_failed
 2439              	.LVL164:
 2440 0042 E2E7     		b	.L245
 2441              	.L248:
1269:Drivers/STM32F0xx_HAL_Driver/Src/stm32f0xx_hal_rcc.c **** 
 2442              		.loc 1 1269 0 discriminator 1
 2443 0044 0649     		ldr	r1, .L249+16
ARM GAS  /tmp/ccVTF5Db.s 			page 69


 2444 0046 0548     		ldr	r0, .L249+12
 2445 0048 FFF7FEFF 		bl	assert_failed
 2446              	.LVL165:
 2447 004c DFE7     		b	.L246
 2448              	.L250:
 2449 004e C046     		.align	2
 2450              	.L249:
 2451 0050 00100240 		.word	1073876992
 2452 0054 00200240 		.word	1073881088
 2453 0058 F4040000 		.word	1268
 2454 005c 00000000 		.word	.LC3
 2455 0060 F5040000 		.word	1269
 2456              		.cfi_endproc
 2457              	.LFE47:
 2459              		.section	.text.HAL_RCC_CSSCallback,"ax",%progbits
 2460              		.align	1
 2461              		.weak	HAL_RCC_CSSCallback
 2462              		.syntax unified
 2463              		.code	16
 2464              		.thumb_func
 2465              		.fpu softvfp
 2467              	HAL_RCC_CSSCallback:
 2468              	.LFB49:
1285:Drivers/STM32F0xx_HAL_Driver/Src/stm32f0xx_hal_rcc.c **** 
1286:Drivers/STM32F0xx_HAL_Driver/Src/stm32f0xx_hal_rcc.c **** /**
1287:Drivers/STM32F0xx_HAL_Driver/Src/stm32f0xx_hal_rcc.c ****   * @brief This function handles the RCC CSS interrupt request.
1288:Drivers/STM32F0xx_HAL_Driver/Src/stm32f0xx_hal_rcc.c ****   * @note This API should be called under the NMI_Handler().
1289:Drivers/STM32F0xx_HAL_Driver/Src/stm32f0xx_hal_rcc.c ****   * @retval None
1290:Drivers/STM32F0xx_HAL_Driver/Src/stm32f0xx_hal_rcc.c ****   */
1291:Drivers/STM32F0xx_HAL_Driver/Src/stm32f0xx_hal_rcc.c **** void HAL_RCC_NMI_IRQHandler(void)
1292:Drivers/STM32F0xx_HAL_Driver/Src/stm32f0xx_hal_rcc.c **** {
1293:Drivers/STM32F0xx_HAL_Driver/Src/stm32f0xx_hal_rcc.c ****   /* Check RCC CSSF flag  */
1294:Drivers/STM32F0xx_HAL_Driver/Src/stm32f0xx_hal_rcc.c ****   if(__HAL_RCC_GET_IT(RCC_IT_CSS))
1295:Drivers/STM32F0xx_HAL_Driver/Src/stm32f0xx_hal_rcc.c ****   {
1296:Drivers/STM32F0xx_HAL_Driver/Src/stm32f0xx_hal_rcc.c ****     /* RCC Clock Security System interrupt user callback */
1297:Drivers/STM32F0xx_HAL_Driver/Src/stm32f0xx_hal_rcc.c ****     HAL_RCC_CSSCallback();
1298:Drivers/STM32F0xx_HAL_Driver/Src/stm32f0xx_hal_rcc.c ****     
1299:Drivers/STM32F0xx_HAL_Driver/Src/stm32f0xx_hal_rcc.c ****     /* Clear RCC CSS pending bit */
1300:Drivers/STM32F0xx_HAL_Driver/Src/stm32f0xx_hal_rcc.c ****     __HAL_RCC_CLEAR_IT(RCC_IT_CSS);
1301:Drivers/STM32F0xx_HAL_Driver/Src/stm32f0xx_hal_rcc.c ****   }
1302:Drivers/STM32F0xx_HAL_Driver/Src/stm32f0xx_hal_rcc.c **** }
1303:Drivers/STM32F0xx_HAL_Driver/Src/stm32f0xx_hal_rcc.c **** 
1304:Drivers/STM32F0xx_HAL_Driver/Src/stm32f0xx_hal_rcc.c **** /**
1305:Drivers/STM32F0xx_HAL_Driver/Src/stm32f0xx_hal_rcc.c ****   * @brief  RCC Clock Security System interrupt callback
1306:Drivers/STM32F0xx_HAL_Driver/Src/stm32f0xx_hal_rcc.c ****   * @retval none
1307:Drivers/STM32F0xx_HAL_Driver/Src/stm32f0xx_hal_rcc.c ****   */
1308:Drivers/STM32F0xx_HAL_Driver/Src/stm32f0xx_hal_rcc.c **** __weak void HAL_RCC_CSSCallback(void)
1309:Drivers/STM32F0xx_HAL_Driver/Src/stm32f0xx_hal_rcc.c **** {
 2469              		.loc 1 1309 0
 2470              		.cfi_startproc
 2471              		@ args = 0, pretend = 0, frame = 0
 2472              		@ frame_needed = 0, uses_anonymous_args = 0
 2473              		@ link register save eliminated.
1310:Drivers/STM32F0xx_HAL_Driver/Src/stm32f0xx_hal_rcc.c ****   /* NOTE : This function Should not be modified, when the callback is needed,
1311:Drivers/STM32F0xx_HAL_Driver/Src/stm32f0xx_hal_rcc.c ****     the HAL_RCC_CSSCallback could be implemented in the user file
1312:Drivers/STM32F0xx_HAL_Driver/Src/stm32f0xx_hal_rcc.c ****     */ 
1313:Drivers/STM32F0xx_HAL_Driver/Src/stm32f0xx_hal_rcc.c **** }
ARM GAS  /tmp/ccVTF5Db.s 			page 70


 2474              		.loc 1 1313 0
 2475              		@ sp needed
 2476 0000 7047     		bx	lr
 2477              		.cfi_endproc
 2478              	.LFE49:
 2480              		.section	.text.HAL_RCC_NMI_IRQHandler,"ax",%progbits
 2481              		.align	1
 2482              		.global	HAL_RCC_NMI_IRQHandler
 2483              		.syntax unified
 2484              		.code	16
 2485              		.thumb_func
 2486              		.fpu softvfp
 2488              	HAL_RCC_NMI_IRQHandler:
 2489              	.LFB48:
1292:Drivers/STM32F0xx_HAL_Driver/Src/stm32f0xx_hal_rcc.c ****   /* Check RCC CSSF flag  */
 2490              		.loc 1 1292 0
 2491              		.cfi_startproc
 2492              		@ args = 0, pretend = 0, frame = 0
 2493              		@ frame_needed = 0, uses_anonymous_args = 0
 2494 0000 10B5     		push	{r4, lr}
 2495              	.LCFI10:
 2496              		.cfi_def_cfa_offset 8
 2497              		.cfi_offset 4, -8
 2498              		.cfi_offset 14, -4
1294:Drivers/STM32F0xx_HAL_Driver/Src/stm32f0xx_hal_rcc.c ****   {
 2499              		.loc 1 1294 0
 2500 0002 054B     		ldr	r3, .L255
 2501 0004 9B68     		ldr	r3, [r3, #8]
 2502 0006 1B06     		lsls	r3, r3, #24
 2503 0008 00D4     		bmi	.L254
 2504              	.L252:
1302:Drivers/STM32F0xx_HAL_Driver/Src/stm32f0xx_hal_rcc.c **** 
 2505              		.loc 1 1302 0
 2506              		@ sp needed
 2507 000a 10BD     		pop	{r4, pc}
 2508              	.L254:
1297:Drivers/STM32F0xx_HAL_Driver/Src/stm32f0xx_hal_rcc.c ****     
 2509              		.loc 1 1297 0
 2510 000c FFF7FEFF 		bl	HAL_RCC_CSSCallback
 2511              	.LVL166:
1300:Drivers/STM32F0xx_HAL_Driver/Src/stm32f0xx_hal_rcc.c ****   }
 2512              		.loc 1 1300 0
 2513 0010 024B     		ldr	r3, .L255+4
 2514 0012 8022     		movs	r2, #128
 2515 0014 1A70     		strb	r2, [r3]
1302:Drivers/STM32F0xx_HAL_Driver/Src/stm32f0xx_hal_rcc.c **** 
 2516              		.loc 1 1302 0
 2517 0016 F8E7     		b	.L252
 2518              	.L256:
 2519              		.align	2
 2520              	.L255:
 2521 0018 00100240 		.word	1073876992
 2522 001c 0A100240 		.word	1073877002
 2523              		.cfi_endproc
 2524              	.LFE48:
 2526              		.section	.rodata
 2527              		.align	2
ARM GAS  /tmp/ccVTF5Db.s 			page 71


 2528              		.set	.LANCHOR0,. + 0
 2529              	.LC0:
 2530 0000 02       		.byte	2
 2531 0001 03       		.byte	3
 2532 0002 04       		.byte	4
 2533 0003 05       		.byte	5
 2534 0004 06       		.byte	6
 2535 0005 07       		.byte	7
 2536 0006 08       		.byte	8
 2537 0007 09       		.byte	9
 2538 0008 0A       		.byte	10
 2539 0009 0B       		.byte	11
 2540 000a 0C       		.byte	12
 2541 000b 0D       		.byte	13
 2542 000c 0E       		.byte	14
 2543 000d 0F       		.byte	15
 2544 000e 10       		.byte	16
 2545 000f 10       		.byte	16
 2546              	.LC1:
 2547 0010 01       		.byte	1
 2548 0011 02       		.byte	2
 2549 0012 03       		.byte	3
 2550 0013 04       		.byte	4
 2551 0014 05       		.byte	5
 2552 0015 06       		.byte	6
 2553 0016 07       		.byte	7
 2554 0017 08       		.byte	8
 2555 0018 09       		.byte	9
 2556 0019 0A       		.byte	10
 2557 001a 0B       		.byte	11
 2558 001b 0C       		.byte	12
 2559 001c 0D       		.byte	13
 2560 001d 0E       		.byte	14
 2561 001e 0F       		.byte	15
 2562 001f 10       		.byte	16
 2563              		.section	.rodata.HAL_RCC_OscConfig.str1.4,"aMS",%progbits,1
 2564              		.align	2
 2565              	.LC3:
 2566 0000 44726976 		.ascii	"Drivers/STM32F0xx_HAL_Driver/Src/stm32f0xx_hal_rcc."
 2566      6572732F 
 2566      53544D33 
 2566      32463078 
 2566      785F4841 
 2567 0033 6300     		.ascii	"c\000"
 2568              		.text
 2569              	.Letext0:
 2570              		.file 2 "/home/logic/STM32Toolchain/gcc-arm-none-eabi-7-2018-q2-update/arm-none-eabi/include/machi
 2571              		.file 3 "/home/logic/STM32Toolchain/gcc-arm-none-eabi-7-2018-q2-update/arm-none-eabi/include/sys/_
 2572              		.file 4 "Drivers/CMSIS/Device/ST/STM32F0xx/Include/system_stm32f0xx.h"
 2573              		.file 5 "Drivers/CMSIS/Device/ST/STM32F0xx/Include/stm32f042x6.h"
 2574              		.file 6 "Drivers/CMSIS/Device/ST/STM32F0xx/Include/stm32f0xx.h"
 2575              		.file 7 "/home/logic/STM32Toolchain/gcc-arm-none-eabi-7-2018-q2-update/arm-none-eabi/include/sys/l
 2576              		.file 8 "/home/logic/STM32Toolchain/gcc-arm-none-eabi-7-2018-q2-update/arm-none-eabi/include/sys/_
 2577              		.file 9 "/home/logic/STM32Toolchain/gcc-arm-none-eabi-7-2018-q2-update/lib/gcc/arm-none-eabi/7.3.1
 2578              		.file 10 "/home/logic/STM32Toolchain/gcc-arm-none-eabi-7-2018-q2-update/arm-none-eabi/include/sys/
 2579              		.file 11 "Drivers/STM32F0xx_HAL_Driver/Inc/stm32f0xx_hal_def.h"
 2580              		.file 12 "Drivers/STM32F0xx_HAL_Driver/Inc/stm32f0xx_hal_rcc.h"
ARM GAS  /tmp/ccVTF5Db.s 			page 72


 2581              		.file 13 "Drivers/STM32F0xx_HAL_Driver/Inc/stm32f0xx_hal_gpio.h"
 2582              		.file 14 "Inc/stm32f0xx_hal_conf.h"
 2583              		.file 15 "Drivers/STM32F0xx_HAL_Driver/Inc/stm32f0xx_hal.h"
ARM GAS  /tmp/ccVTF5Db.s 			page 73

